	.text
	.file	"conv_add_trivial_kernel.cpp"
	.globl	_Z12parse_inputsiPPc            # -- Begin function _Z12parse_inputsiPPc
	.p2align	4, 0x90
	.type	_Z12parse_inputsiPPc,@function
_Z12parse_inputsiPPc:                   # @_Z12parse_inputsiPPc
.Lfunc_begin0:
	.cfi_startproc
	.cfi_personality 3, __gxx_personality_v0
	.cfi_lsda 3, .Lexception0
# %bb.0:                                # %.noexc8.i
	pushq	%rbp
	.cfi_def_cfa_offset 16
	pushq	%r15
	.cfi_def_cfa_offset 24
	pushq	%r14
	.cfi_def_cfa_offset 32
	pushq	%r13
	.cfi_def_cfa_offset 40
	pushq	%r12
	.cfi_def_cfa_offset 48
	pushq	%rbx
	.cfi_def_cfa_offset 56
	subq	$920, %rsp                      # imm = 0x398
	.cfi_def_cfa_offset 976
	.cfi_offset %rbx, -56
	.cfi_offset %r12, -48
	.cfi_offset %r13, -40
	.cfi_offset %r14, -32
	.cfi_offset %r15, -24
	.cfi_offset %rbp, -16
	movq	%rdx, 880(%rsp)                 # 8-byte Spill
	movl	%esi, 196(%rsp)                 # 4-byte Spill
	movq	%rdi, 120(%rsp)                 # 8-byte Spill
	leaq	376(%rsp), %r14
	movq	%r14, 360(%rsp)
	movq	$23, (%rsp)
.Ltmp0:
	leaq	360(%rsp), %rdi
	movq	%rsp, %rsi
	xorl	%edx, %edx
	callq	_ZNSt7__cxx1112basic_stringIcSt11char_traitsIcESaIcEE9_M_createERmm
.Ltmp1:
# %bb.1:                                # %.noexc
	movq	%rax, 360(%rsp)
	movq	(%rsp), %rcx
	movq	%rcx, 376(%rsp)
	movups	.L.str(%rip), %xmm0
	movups	%xmm0, (%rax)
	movabsq	$7810770566350856044, %rdx      # imm = 0x6C656E72656B5F6C
	movq	%rdx, 15(%rax)
	movq	%rcx, 368(%rsp)
	movq	360(%rsp), %rax
	movb	$0, (%rax,%rcx)
	leaq	904(%rsp), %r15
	movq	%r15, 888(%rsp)
	movl	$3157553, 904(%rsp)             # imm = 0x302E31
	movq	$3, 896(%rsp)
.Ltmp3:
	leaq	392(%rsp), %rdi
	leaq	360(%rsp), %rsi
	leaq	888(%rsp), %rdx
	movl	$_ZSt4cout, %r9d
	movl	$3, %ecx
	movl	$1, %r8d
	callq	_ZN8argparse14ArgumentParserC2ENSt7__cxx1112basic_stringIcSt11char_traitsIcESaIcEEES6_NS_17default_argumentsEbRSo
.Ltmp4:
# %bb.2:
	movq	888(%rsp), %rdi
	cmpq	%r15, %rdi
	je	.LBB0_4
# %bb.3:
	callq	_ZdlPv
.LBB0_4:                                # %_ZNSt7__cxx1112basic_stringIcSt11char_traitsIcESaIcEED2Ev.exit
	movq	360(%rsp), %rdi
	cmpq	%r14, %rdi
	je	.LBB0_6
# %bb.5:
	callq	_ZdlPv
.LBB0_6:                                # %_ZNSt7__cxx1112basic_stringIcSt11char_traitsIcESaIcEED2Ev.exit38
	movq	$11, (%rsp)
	movq	$.L.str.2, 8(%rsp)
.Ltmp6:
	movl	$360, %edi                      # imm = 0x168
	callq	_Znwm
.Ltmp7:
# %bb.7:                                # %.noexc39
	movq	%rax, %rbx
	movq	%rax, %r12
	leaq	16(%rax), %rdi
	movq	528(%rsp), %rdx
	movq	536(%rsp), %rsi
.Ltmp8:
	movq	%rsp, %rcx
	callq	_ZN8argparse8ArgumentC2ILm1EJLm0EEEESt17basic_string_viewIcSt11char_traitsIcEEOSt5arrayIS5_XT_EESt16integer_sequenceImJXspT0_EEE
.Ltmp9:
# %bb.8:                                # %_ZNSt7__cxx114listIN8argparse8ArgumentESaIS2_EE7emplaceIJRNS_12basic_stringIcSt11char_traitsIcESaIcEEESt5arrayISt17basic_string_viewIcS8_ELm1EEEEESt14_List_iteratorIS2_ESt20_List_const_iteratorIS2_EDpOT_.exit.i
	movq	%rbx, 64(%rsp)                  # 8-byte Spill
	leaq	624(%rsp), %rsi
	movq	%r12, %rdi
	callq	_ZNSt8__detail15_List_node_base7_M_hookEPS0_
	incq	640(%rsp)
	testb	$2, 336(%r12)
	jne	.LBB0_11
# %bb.9:
	leaq	600(%rsp), %rdi
	movq	(%r12), %rdx
	cmpq	%rdi, %rdx
	je	.LBB0_11
# %bb.10:
	movq	%r12, %rsi
	callq	_ZNSt8__detail15_List_node_base11_M_transferEPS0_S1_
	incq	616(%rsp)
	decq	640(%rsp)
.LBB0_11:                               # %_ZNSt7__cxx114listIN8argparse8ArgumentESaIS2_EE6spliceESt20_List_const_iteratorIS2_ERS4_S6_.exit.i
	movq	16(%r12), %rax
	movq	24(%r12), %rcx
	movq	%rcx, 56(%rsp)                  # 8-byte Spill
	cmpq	%rcx, %rax
	je	.LBB0_37
# %bb.12:                               # %.lr.ph.i.i
	movq	%r12, 40(%rsp)                  # 8-byte Spill
	jmp	.LBB0_15
	.p2align	4, 0x90
.LBB0_13:                               #   in Loop: Header=BB0_15 Depth=1
	movq	%r13, %rdi
	callq	_ZdlPv
.LBB0_14:                               # %.noexc40
                                        #   in Loop: Header=BB0_15 Depth=1
	movq	48(%rsp), %rax                  # 8-byte Reload
	addq	$32, %rax
	cmpq	56(%rsp), %rax                  # 8-byte Folded Reload
	je	.LBB0_37
.LBB0_15:                               # =>This Loop Header: Depth=1
                                        #     Child Loop BB0_19 Depth 2
	movq	(%rax), %rbx
	movq	%rax, 48(%rsp)                  # 8-byte Spill
	movq	8(%rax), %rbp
	movq	664(%rsp), %rax
	leaq	656(%rsp), %rcx
	testq	%rax, %rax
	je	.LBB0_27
# %bb.16:                               # %.lr.ph.i.i.i.i.preheader
                                        #   in Loop: Header=BB0_15 Depth=1
	leaq	656(%rsp), %r12
	jmp	.LBB0_19
	.p2align	4, 0x90
.LBB0_17:                               # %_ZNSt11char_traitsIcE7compareEPKcS2_m.exit.thread.i.i.i.i.i.i.i
                                        #   in Loop: Header=BB0_19 Depth=2
	cmpq	$-2147483647, %r12              # imm = 0x80000001
	movq	$-2147483648, %rax              # imm = 0x80000000
	cmovlq	%rax, %r12
	cmpq	$2147483647, %r12               # imm = 0x7FFFFFFF
	movl	$2147483647, %eax               # imm = 0x7FFFFFFF
	cmovgeq	%rax, %r12
	movl	%r12d, %r14d
.LBB0_18:                               # %_ZNKSt4lessISt17basic_string_viewIcSt11char_traitsIcEEEclERKS3_S6_.exit.i.i.i.i
                                        #   in Loop: Header=BB0_19 Depth=2
	testl	%r14d, %r14d
	movq	%r15, %r12
	cmovsq	%r13, %r12
	movl	%r14d, %eax
	shrl	$31, %eax
	movq	16(%r15,%rax,8), %rax
	testq	%rax, %rax
	je	.LBB0_21
.LBB0_19:                               # %.lr.ph.i.i.i.i
                                        #   Parent Loop BB0_15 Depth=1
                                        # =>  This Inner Loop Header: Depth=2
	movq	%r12, %r13
	movq	%rax, %r15
	movq	32(%rax), %rdx
	movq	%rdx, %r12
	subq	%rbp, %r12
	cmovaeq	%rbp, %rdx
	testq	%rdx, %rdx
	je	.LBB0_17
# %bb.20:                               # %_ZNSt11char_traitsIcE7compareEPKcS2_m.exit.i.i.i.i.i.i.i
                                        #   in Loop: Header=BB0_19 Depth=2
	movq	40(%r15), %rdi
	movq	%rbx, %rsi
	callq	memcmp
	movl	%eax, %r14d
	testl	%eax, %eax
	jne	.LBB0_18
	jmp	.LBB0_17
	.p2align	4, 0x90
.LBB0_21:                               # %_ZNSt3mapISt17basic_string_viewIcSt11char_traitsIcEESt14_List_iteratorIN8argparse8ArgumentEESt4lessIS3_ESaISt4pairIKS3_S7_EEE11lower_boundERSB_.exit.i
                                        #   in Loop: Header=BB0_15 Depth=1
	leaq	656(%rsp), %rax
	movq	%rax, %rcx
	cmpq	%rax, %r12
	je	.LBB0_27
# %bb.22:                               #   in Loop: Header=BB0_15 Depth=1
	testl	%r14d, %r14d
	movq	%r15, %rax
	cmovsq	%r13, %rax
	movq	32(%rax), %rdx
	movq	%rbp, %rcx
	subq	%rdx, %rcx
	cmovbq	%rbp, %rdx
	testq	%rdx, %rdx
	je	.LBB0_26
# %bb.23:                               # %_ZNSt11char_traitsIcE7compareEPKcS2_m.exit.i.i.i.i
                                        #   in Loop: Header=BB0_15 Depth=1
	testl	%r14d, %r14d
	movq	%r15, %rax
	cmovsq	%r13, %rax
	movq	40(%rax), %rsi
	movq	%rbx, %rdi
	movq	%rcx, 72(%rsp)                  # 8-byte Spill
	callq	memcmp
	movq	72(%rsp), %rcx                  # 8-byte Reload
	testl	%eax, %eax
	je	.LBB0_26
# %bb.24:                               # %_ZNKSt4lessISt17basic_string_viewIcSt11char_traitsIcEEEclERKS3_S6_.exit.i
                                        #   in Loop: Header=BB0_15 Depth=1
	movq	%r12, %rcx
	testl	%eax, %eax
	js	.LBB0_27
.LBB0_25:                               #   in Loop: Header=BB0_15 Depth=1
	testl	%r14d, %r14d
	cmovsq	%r13, %r15
	movq	40(%rsp), %r12                  # 8-byte Reload
	movq	%r12, 48(%r15)
	jmp	.LBB0_14
	.p2align	4, 0x90
.LBB0_26:                               # %_ZNSt11char_traitsIcE7compareEPKcS2_m.exit.thread.i.i.i.i
                                        #   in Loop: Header=BB0_15 Depth=1
	cmpq	$-2147483647, %rcx              # imm = 0x80000001
	movq	$-2147483648, %rax              # imm = 0x80000000
	cmovlq	%rax, %rcx
	cmpq	$2147483647, %rcx               # imm = 0x7FFFFFFF
	movl	$2147483647, %eax               # imm = 0x7FFFFFFF
	cmovgeq	%rax, %rcx
	movl	%ecx, %eax
	movq	%r12, %rcx
	testl	%eax, %eax
	jns	.LBB0_25
	.p2align	4, 0x90
.LBB0_27:                               # %.critedge.i
                                        #   in Loop: Header=BB0_15 Depth=1
.Ltmp11:
	movq	%rcx, %r15
	movl	$56, %edi
	callq	_Znwm
.Ltmp12:
# %bb.28:                               # %.noexc562
                                        #   in Loop: Header=BB0_15 Depth=1
	movq	%rax, %r13
	movq	%rax, %r14
	addq	$32, %r14
	movq	%rbp, 32(%rax)
	movq	%rbx, 40(%rax)
	movq	40(%rsp), %r12                  # 8-byte Reload
	movq	%r12, 48(%rax)
.Ltmp14:
	leaq	648(%rsp), %rdi
	movq	%r15, %rsi
	movq	%r14, %rdx
	callq	_ZNSt8_Rb_treeISt17basic_string_viewIcSt11char_traitsIcEESt4pairIKS3_St14_List_iteratorIN8argparse8ArgumentEEESt10_Select1stISA_ESt4lessIS3_ESaISA_EE29_M_get_insert_hint_unique_posESt23_Rb_tree_const_iteratorISA_ERS5_
.Ltmp15:
# %bb.29:                               #   in Loop: Header=BB0_15 Depth=1
	movq	%rdx, %rbx
	testq	%rdx, %rdx
	je	.LBB0_13
# %bb.30:                               #   in Loop: Header=BB0_15 Depth=1
	movq	%rax, %rcx
	movb	$1, %al
	testq	%rcx, %rcx
	jne	.LBB0_36
# %bb.31:                               #   in Loop: Header=BB0_15 Depth=1
	leaq	656(%rsp), %rcx
	cmpq	%rbx, %rcx
	je	.LBB0_36
# %bb.32:                               #   in Loop: Header=BB0_15 Depth=1
	movq	(%r14), %rax
	movq	32(%rbx), %rdx
	movq	%rax, %r14
	subq	%rdx, %r14
	cmovbq	%rax, %rdx
	testq	%rdx, %rdx
	je	.LBB0_34
# %bb.33:                               # %_ZNSt11char_traitsIcE7compareEPKcS2_m.exit.i.i.i.i.i
                                        #   in Loop: Header=BB0_15 Depth=1
	movq	40(%rbx), %rsi
	movq	40(%r13), %rdi
	callq	memcmp
	testl	%eax, %eax
	jne	.LBB0_35
.LBB0_34:                               # %_ZNSt11char_traitsIcE7compareEPKcS2_m.exit.thread.i.i.i.i.i
                                        #   in Loop: Header=BB0_15 Depth=1
	cmpq	$-2147483647, %r14              # imm = 0x80000001
	movq	$-2147483648, %rax              # imm = 0x80000000
	cmovlq	%rax, %r14
	cmpq	$2147483647, %r14               # imm = 0x7FFFFFFF
	movl	$2147483647, %eax               # imm = 0x7FFFFFFF
	cmovgeq	%rax, %r14
	movl	%r14d, %eax
.LBB0_35:                               # %_ZNKSt4lessISt17basic_string_viewIcSt11char_traitsIcEEEclERKS3_S6_.exit.i.i
                                        #   in Loop: Header=BB0_15 Depth=1
	shrl	$31, %eax
.LBB0_36:                               #   in Loop: Header=BB0_15 Depth=1
	movzbl	%al, %edi
	movq	%r13, %rsi
	movq	%rbx, %rdx
	leaq	656(%rsp), %rcx
	callq	_ZSt29_Rb_tree_insert_and_rebalancebPSt18_Rb_tree_node_baseS0_RS_
	incq	688(%rsp)
	jmp	.LBB0_14
.LBB0_37:                               # %_ZN8argparse14ArgumentParser12add_argumentIJPKcEEERNS_8ArgumentEDpT_.exit
	leaq	144(%rsp), %r15
	movq	%r15, 128(%rsp)
	movq	$18, (%rsp)
.Ltmp23:
	leaq	128(%rsp), %rdi
	movq	%rsp, %rsi
	xorl	%edx, %edx
	callq	_ZNSt7__cxx1112basic_stringIcSt11char_traitsIcESaIcEE9_M_createERmm
.Ltmp24:
# %bb.38:                               # %.noexc43
	movq	%rax, 128(%rsp)
	movq	(%rsp), %rcx
	movq	%rcx, 144(%rsp)
	movups	.L.str.3(%rip), %xmm0
	movups	%xmm0, (%rax)
	movw	$29548, 16(%rax)                # imm = 0x736C
	movq	%rcx, 136(%rsp)
	movq	128(%rsp), %rax
	movb	$0, (%rax,%rcx)
	movq	128(%rsp), %rcx
	cmpq	%r15, %rcx
	movq	64(%rsp), %rbx                  # 8-byte Reload
	je	.LBB0_42
# %bb.39:
	leaq	72(%rbx), %rdx
	movq	56(%r12), %rax
	cmpq	%rdx, %rax
	je	.LBB0_45
# %bb.40:
	movq	72(%r12), %rdx
	movq	%rcx, 56(%r12)
	movups	136(%rsp), %xmm0
	movups	%xmm0, 64(%r12)
	testq	%rax, %rax
	je	.LBB0_46
# %bb.41:
	movq	%rax, 128(%rsp)
	movq	%rdx, 144(%rsp)
	jmp	.LBB0_49
.LBB0_42:
	movq	136(%rsp), %rdx
	testq	%rdx, %rdx
	je	.LBB0_48
# %bb.43:
	movq	56(%r12), %rdi
	cmpq	$1, %rdx
	jne	.LBB0_47
# %bb.44:
	movzbl	144(%rsp), %eax
	movb	%al, (%rdi)
	jmp	.LBB0_48
.LBB0_45:                               # %.thread.i.i
	movq	%rcx, 56(%r12)
	movups	136(%rsp), %xmm0
	movups	%xmm0, 64(%r12)
.LBB0_46:
	movq	%r15, 128(%rsp)
	movq	%r15, %rax
	jmp	.LBB0_49
.LBB0_47:
	movq	%r15, %rsi
	callq	memcpy@PLT
.LBB0_48:                               # %_ZNSt7__cxx1112basic_stringIcSt11char_traitsIcESaIcEE7_S_copyEPcPKcm.exit.i.i
	movq	136(%rsp), %rax
	movq	%rax, 64(%r12)
	movq	56(%r12), %rcx
	movb	$0, (%rcx,%rax)
	movq	128(%rsp), %rax
.LBB0_49:                               # %_ZN8argparse8Argument4helpENSt7__cxx1112basic_stringIcSt11char_traitsIcESaIcEEE.exit
	movq	$0, 136(%rsp)
	movb	$0, (%rax)
	addq	$256, %rbx                      # imm = 0x100
	movq	$_ZNSt17_Function_handlerIFSt3anyRKNSt7__cxx1112basic_stringIcSt11char_traitsIcESaIcEEEEN8argparse7details12parse_numberIiLi0EEEE9_M_invokeERKSt9_Any_dataS8_, 24(%rsp)
	movq	$_ZNSt14_Function_base13_Base_managerIN8argparse7details12parse_numberIiLi0EEEE10_M_managerERSt9_Any_dataRKS6_St18_Manager_operation, 16(%rsp)
	movb	$0, 32(%rsp)
	movzbl	288(%r12), %eax
	testq	%rax, %rax
	je	.LBB0_52
# %bb.50:
	cmpb	$-1, %al
	movq	$-1, %rcx
	cmovneq	%rax, %rcx
.Ltmp26:
	leaq	80(%rsp), %rdi
	movq	%rbx, %rsi
	callq	*_ZNSt8__detail9__variant12__gen_vtableILb1ENS0_16__variant_cookieEOZNS0_16_Variant_storageILb0EJSt8functionIFSt3anyRKNSt7__cxx1112basic_stringIcSt11char_traitsIcESaIcEEEEES4_IFvSD_EEEE13_M_reset_implEvEUlOT_E_JRSt7variantIJSF_SH_EEEE9_S_vtableE(,%rcx,8)
.Ltmp27:
# %bb.51:                               # %.noexc567
	movb	$0, 288(%r12)
	movaps	(%rsp), %xmm0
	movaps	%xmm0, 80(%rsp)
	movups	(%rbx), %xmm1
	movaps	%xmm1, (%rsp)
	movups	%xmm0, (%rbx)
	movq	280(%r12), %rax
	movaps	16(%rsp), %xmm0
	movq	$0, 16(%rsp)
	movq	%rax, 24(%rsp)
	movups	%xmm0, 272(%r12)
	jmp	.LBB0_54
.LBB0_52:
	movq	$0, 16(%rsp)
	movups	(%rbx), %xmm0
	movaps	%xmm0, 80(%rsp)
	movq	272(%r12), %rax
	movq	%rax, 96(%rsp)
	movq	$_ZNSt14_Function_base13_Base_managerIN8argparse7details12parse_numberIiLi0EEEE10_M_managerERSt9_Any_dataRKS6_St18_Manager_operation, 272(%r12)
	movq	280(%r12), %rcx
	movq	%rcx, 104(%rsp)
	movq	$_ZNSt17_Function_handlerIFSt3anyRKNSt7__cxx1112basic_stringIcSt11char_traitsIcESaIcEEEEN8argparse7details12parse_numberIiLi0EEEE9_M_invokeERKSt9_Any_dataS8_, 280(%r12)
	testq	%rax, %rax
	je	.LBB0_54
# %bb.53:
.Ltmp29:
	leaq	80(%rsp), %rdi
	movq	%rdi, %rsi
	movl	$3, %edx
	callq	*%rax
.Ltmp30:
.LBB0_54:                               # %_ZNSt7variantIJSt8functionIFSt3anyRKNSt7__cxx1112basic_stringIcSt11char_traitsIcESaIcEEEEES0_IFvS9_EEEEaSEOSE_.exit.i
	movzbl	32(%rsp), %eax
	cmpq	$255, %rax
	movq	$-1, %rcx
	cmovneq	%rax, %rcx
.Ltmp32:
	leaq	80(%rsp), %rdi
	movq	%rsp, %rsi
	callq	*_ZNSt8__detail9__variant12__gen_vtableILb1ENS0_16__variant_cookieEOZNS0_16_Variant_storageILb0EJSt8functionIFSt3anyRKNSt7__cxx1112basic_stringIcSt11char_traitsIcESaIcEEEEES4_IFvSD_EEEE13_M_reset_implEvEUlOT_E_JRSt7variantIJSF_SH_EEEE9_S_vtableE(,%rcx,8)
.Ltmp33:
# %bb.55:                               # %_ZNSt8__detail9__variant16_Variant_storageILb0EJSt8functionIFSt3anyRKNSt7__cxx1112basic_stringIcSt11char_traitsIcESaIcEEEEES2_IFvSB_EEEED2Ev.exit.i
	cmpb	$0, 288(%r12)
	jne	.LBB0_357
# %bb.56:                               # %_ZN8argparse8Argument4scanILc105EiEENSt9enable_ifIXsr3stdE15is_arithmetic_vIT0_EERS0_E4typeEv.exit
	movq	128(%rsp), %rdi
	cmpq	%r15, %rdi
	je	.LBB0_58
# %bb.57:
	callq	_ZdlPv
.LBB0_58:                               # %_ZNSt7__cxx1112basic_stringIcSt11char_traitsIcESaIcEED2Ev.exit47
	movq	$9, (%rsp)
	movq	$.L.str.4, 8(%rsp)
.Ltmp38:
	movl	$360, %edi                      # imm = 0x168
	callq	_Znwm
.Ltmp39:
# %bb.59:                               # %.noexc56
	movq	%rax, %rbx
	movq	%rax, %r15
	leaq	16(%rax), %rdi
	movq	528(%rsp), %rdx
	movq	536(%rsp), %rsi
.Ltmp40:
	movq	%rsp, %rcx
	callq	_ZN8argparse8ArgumentC2ILm1EJLm0EEEESt17basic_string_viewIcSt11char_traitsIcEEOSt5arrayIS5_XT_EESt16integer_sequenceImJXspT0_EEE
.Ltmp41:
# %bb.60:                               # %_ZNSt7__cxx114listIN8argparse8ArgumentESaIS2_EE7emplaceIJRNS_12basic_stringIcSt11char_traitsIcESaIcEEESt5arrayISt17basic_string_viewIcS8_ELm1EEEEESt14_List_iteratorIS2_ESt20_List_const_iteratorIS2_EDpOT_.exit.i50
	movq	%rbx, 64(%rsp)                  # 8-byte Spill
	movq	%r15, %rdi
	leaq	624(%rsp), %rsi
	callq	_ZNSt8__detail15_List_node_base7_M_hookEPS0_
	incq	640(%rsp)
	testb	$2, 336(%r15)
	jne	.LBB0_63
# %bb.61:
	leaq	600(%rsp), %rdi
	movq	(%r15), %rdx
	cmpq	%rdi, %rdx
	je	.LBB0_63
# %bb.62:
	movq	%r15, %rsi
	callq	_ZNSt8__detail15_List_node_base11_M_transferEPS0_S1_
	incq	616(%rsp)
	decq	640(%rsp)
.LBB0_63:                               # %_ZNSt7__cxx114listIN8argparse8ArgumentESaIS2_EE6spliceESt20_List_const_iteratorIS2_ERS4_S6_.exit.i52
	movq	16(%r15), %r12
	movq	24(%r15), %rax
	movq	%rax, 56(%rsp)                  # 8-byte Spill
	cmpq	%rax, %r12
	je	.LBB0_89
# %bb.64:                               # %.lr.ph.i.i53
	movq	%r15, 40(%rsp)                  # 8-byte Spill
	jmp	.LBB0_67
	.p2align	4, 0x90
.LBB0_65:                               #   in Loop: Header=BB0_67 Depth=1
	movq	%r13, %rdi
	callq	_ZdlPv
.LBB0_66:                               # %.noexc59
                                        #   in Loop: Header=BB0_67 Depth=1
	addq	$32, %r12
	cmpq	56(%rsp), %r12                  # 8-byte Folded Reload
	je	.LBB0_89
.LBB0_67:                               # =>This Loop Header: Depth=1
                                        #     Child Loop BB0_71 Depth 2
	movq	(%r12), %rbx
	movq	%r12, 48(%rsp)                  # 8-byte Spill
	movq	8(%r12), %rbp
	movq	664(%rsp), %rax
	leaq	656(%rsp), %rcx
	testq	%rax, %rax
	je	.LBB0_79
# %bb.68:                               # %.lr.ph.i.i.i.i277.preheader
                                        #   in Loop: Header=BB0_67 Depth=1
	leaq	656(%rsp), %r12
	jmp	.LBB0_71
	.p2align	4, 0x90
.LBB0_69:                               # %_ZNSt11char_traitsIcE7compareEPKcS2_m.exit.thread.i.i.i.i.i.i.i288
                                        #   in Loop: Header=BB0_71 Depth=2
	cmpq	$-2147483647, %r12              # imm = 0x80000001
	movq	$-2147483648, %rax              # imm = 0x80000000
	cmovlq	%rax, %r12
	cmpq	$2147483647, %r12               # imm = 0x7FFFFFFF
	movl	$2147483647, %eax               # imm = 0x7FFFFFFF
	cmovgeq	%rax, %r12
	movl	%r12d, %r14d
.LBB0_70:                               # %_ZNKSt4lessISt17basic_string_viewIcSt11char_traitsIcEEEclERKS3_S6_.exit.i.i.i.i294
                                        #   in Loop: Header=BB0_71 Depth=2
	testl	%r14d, %r14d
	movq	%r15, %r12
	cmovsq	%r13, %r12
	movl	%r14d, %eax
	shrl	$31, %eax
	movq	16(%r15,%rax,8), %rax
	testq	%rax, %rax
	je	.LBB0_73
.LBB0_71:                               # %.lr.ph.i.i.i.i277
                                        #   Parent Loop BB0_67 Depth=1
                                        # =>  This Inner Loop Header: Depth=2
	movq	%r12, %r13
	movq	%rax, %r15
	movq	32(%rax), %rdx
	movq	%rdx, %r12
	subq	%rbp, %r12
	cmovaeq	%rbp, %rdx
	testq	%rdx, %rdx
	je	.LBB0_69
# %bb.72:                               # %_ZNSt11char_traitsIcE7compareEPKcS2_m.exit.i.i.i.i.i.i.i284
                                        #   in Loop: Header=BB0_71 Depth=2
	movq	40(%r15), %rdi
	movq	%rbx, %rsi
	callq	memcmp
	movl	%eax, %r14d
	testl	%eax, %eax
	jne	.LBB0_70
	jmp	.LBB0_69
	.p2align	4, 0x90
.LBB0_73:                               # %_ZNSt3mapISt17basic_string_viewIcSt11char_traitsIcEESt14_List_iteratorIN8argparse8ArgumentEESt4lessIS3_ESaISt4pairIKS3_S7_EEE11lower_boundERSB_.exit.i295
                                        #   in Loop: Header=BB0_67 Depth=1
	leaq	656(%rsp), %rax
	movq	%rax, %rcx
	cmpq	%rax, %r12
	je	.LBB0_79
# %bb.74:                               #   in Loop: Header=BB0_67 Depth=1
	testl	%r14d, %r14d
	movq	%r15, %rax
	cmovsq	%r13, %rax
	movq	32(%rax), %rdx
	movq	%rbp, %rcx
	subq	%rdx, %rcx
	cmovbq	%rbp, %rdx
	testq	%rdx, %rdx
	je	.LBB0_78
# %bb.75:                               # %_ZNSt11char_traitsIcE7compareEPKcS2_m.exit.i.i.i.i300
                                        #   in Loop: Header=BB0_67 Depth=1
	testl	%r14d, %r14d
	movq	%r15, %rax
	cmovsq	%r13, %rax
	movq	40(%rax), %rsi
	movq	%rbx, %rdi
	movq	%rcx, 72(%rsp)                  # 8-byte Spill
	callq	memcmp
	movq	72(%rsp), %rcx                  # 8-byte Reload
	testl	%eax, %eax
	je	.LBB0_78
# %bb.76:                               # %_ZNKSt4lessISt17basic_string_viewIcSt11char_traitsIcEEEclERKS3_S6_.exit.i306
                                        #   in Loop: Header=BB0_67 Depth=1
	movq	%r12, %rcx
	testl	%eax, %eax
	js	.LBB0_79
.LBB0_77:                               #   in Loop: Header=BB0_67 Depth=1
	testl	%r14d, %r14d
	cmovsq	%r13, %r15
	movq	40(%rsp), %rax                  # 8-byte Reload
	movq	%rax, 48(%r15)
	movq	%rax, %r15
	movq	48(%rsp), %r12                  # 8-byte Reload
	jmp	.LBB0_66
	.p2align	4, 0x90
.LBB0_78:                               # %_ZNSt11char_traitsIcE7compareEPKcS2_m.exit.thread.i.i.i.i304
                                        #   in Loop: Header=BB0_67 Depth=1
	cmpq	$-2147483647, %rcx              # imm = 0x80000001
	movq	$-2147483648, %rax              # imm = 0x80000000
	cmovlq	%rax, %rcx
	cmpq	$2147483647, %rcx               # imm = 0x7FFFFFFF
	movl	$2147483647, %eax               # imm = 0x7FFFFFFF
	cmovgeq	%rax, %rcx
	movl	%ecx, %eax
	movq	%r12, %rcx
	testl	%eax, %eax
	jns	.LBB0_77
	.p2align	4, 0x90
.LBB0_79:                               # %.critedge.i308
                                        #   in Loop: Header=BB0_67 Depth=1
.Ltmp43:
	movq	%rcx, %r12
	movl	$56, %edi
	callq	_Znwm
.Ltmp44:
# %bb.80:                               # %.noexc587
                                        #   in Loop: Header=BB0_67 Depth=1
	movq	%rax, %r13
	movq	%rax, %r14
	addq	$32, %r14
	movq	%rbp, 32(%rax)
	movq	%rbx, 40(%rax)
	movq	40(%rsp), %r15                  # 8-byte Reload
	movq	%r15, 48(%rax)
.Ltmp46:
	leaq	648(%rsp), %rdi
	movq	%r12, %rsi
	movq	%r14, %rdx
	callq	_ZNSt8_Rb_treeISt17basic_string_viewIcSt11char_traitsIcEESt4pairIKS3_St14_List_iteratorIN8argparse8ArgumentEEESt10_Select1stISA_ESt4lessIS3_ESaISA_EE29_M_get_insert_hint_unique_posESt23_Rb_tree_const_iteratorISA_ERS5_
.Ltmp47:
# %bb.81:                               #   in Loop: Header=BB0_67 Depth=1
	movq	%rdx, %rbx
	testq	%rdx, %rdx
	movq	48(%rsp), %r12                  # 8-byte Reload
	je	.LBB0_65
# %bb.82:                               #   in Loop: Header=BB0_67 Depth=1
	movq	%rax, %rcx
	movb	$1, %al
	testq	%rcx, %rcx
	jne	.LBB0_88
# %bb.83:                               #   in Loop: Header=BB0_67 Depth=1
	leaq	656(%rsp), %rcx
	cmpq	%rbx, %rcx
	je	.LBB0_88
# %bb.84:                               #   in Loop: Header=BB0_67 Depth=1
	movq	(%r14), %rax
	movq	32(%rbx), %rdx
	movq	%rax, %r14
	subq	%rdx, %r14
	cmovbq	%rax, %rdx
	testq	%rdx, %rdx
	je	.LBB0_86
# %bb.85:                               # %_ZNSt11char_traitsIcE7compareEPKcS2_m.exit.i.i.i.i.i579
                                        #   in Loop: Header=BB0_67 Depth=1
	movq	40(%rbx), %rsi
	movq	40(%r13), %rdi
	callq	memcmp
	testl	%eax, %eax
	jne	.LBB0_87
.LBB0_86:                               # %_ZNSt11char_traitsIcE7compareEPKcS2_m.exit.thread.i.i.i.i.i583
                                        #   in Loop: Header=BB0_67 Depth=1
	cmpq	$-2147483647, %r14              # imm = 0x80000001
	movq	$-2147483648, %rax              # imm = 0x80000000
	cmovlq	%rax, %r14
	cmpq	$2147483647, %r14               # imm = 0x7FFFFFFF
	movl	$2147483647, %eax               # imm = 0x7FFFFFFF
	cmovgeq	%rax, %r14
	movl	%r14d, %eax
.LBB0_87:                               # %_ZNKSt4lessISt17basic_string_viewIcSt11char_traitsIcEEEclERKS3_S6_.exit.i.i585
                                        #   in Loop: Header=BB0_67 Depth=1
	shrl	$31, %eax
.LBB0_88:                               #   in Loop: Header=BB0_67 Depth=1
	movzbl	%al, %edi
	movq	%r13, %rsi
	movq	%rbx, %rdx
	leaq	656(%rsp), %rcx
	callq	_ZSt29_Rb_tree_insert_and_rebalancebPSt18_Rb_tree_node_baseS0_RS_
	incq	688(%rsp)
	jmp	.LBB0_66
.LBB0_89:                               # %_ZN8argparse8Argument4helpENSt7__cxx1112basic_stringIcSt11char_traitsIcESaIcEEE.exit71
	leaq	344(%rsp), %r14
	movq	%r14, 328(%rsp)
	movabsq	$7307126079967227497, %rax      # imm = 0x6568207475706E69
	movq	%rax, 344(%rsp)
	movl	$1952999273, 352(%rsp)          # imm = 0x74686769
	movq	$12, 336(%rsp)
	movb	$0, 356(%rsp)
	movq	56(%r15), %rcx
	movq	%rax, (%rcx)
	movl	$1952999273, 8(%rcx)            # imm = 0x74686769
	movq	336(%rsp), %rax
	movq	%rax, 64(%r15)
	movq	56(%r15), %rcx
	movb	$0, (%rcx,%rax)
	movq	328(%rsp), %rax
	movq	$0, 336(%rsp)
	movb	$0, (%rax)
	movq	64(%rsp), %rbx                  # 8-byte Reload
	addq	$256, %rbx                      # imm = 0x100
	movq	$_ZNSt17_Function_handlerIFSt3anyRKNSt7__cxx1112basic_stringIcSt11char_traitsIcESaIcEEEEN8argparse7details12parse_numberIiLi0EEEE9_M_invokeERKSt9_Any_dataS8_, 24(%rsp)
	movq	$_ZNSt14_Function_base13_Base_managerIN8argparse7details12parse_numberIiLi0EEEE10_M_managerERSt9_Any_dataRKS6_St18_Manager_operation, 16(%rsp)
	movb	$0, 32(%rsp)
	movzbl	288(%r15), %eax
	testq	%rax, %rax
	je	.LBB0_92
# %bb.90:
	cmpb	$-1, %al
	movq	$-1, %rcx
	cmovneq	%rax, %rcx
.Ltmp55:
	leaq	80(%rsp), %rdi
	movq	%rbx, %rsi
	callq	*_ZNSt8__detail9__variant12__gen_vtableILb1ENS0_16__variant_cookieEOZNS0_16_Variant_storageILb0EJSt8functionIFSt3anyRKNSt7__cxx1112basic_stringIcSt11char_traitsIcESaIcEEEEES4_IFvSD_EEEE13_M_reset_implEvEUlOT_E_JRSt7variantIJSF_SH_EEEE9_S_vtableE(,%rcx,8)
.Ltmp56:
# %bb.91:                               # %.noexc596
	movb	$0, 288(%r15)
	movaps	(%rsp), %xmm0
	movaps	%xmm0, 80(%rsp)
	movups	(%rbx), %xmm1
	movaps	%xmm1, (%rsp)
	movups	%xmm0, (%rbx)
	movq	280(%r15), %rax
	movaps	16(%rsp), %xmm0
	movq	$0, 16(%rsp)
	movq	%rax, 24(%rsp)
	movups	%xmm0, 272(%r15)
	jmp	.LBB0_94
.LBB0_92:
	movq	$0, 16(%rsp)
	movups	(%rbx), %xmm0
	movaps	%xmm0, 80(%rsp)
	movq	272(%r15), %rax
	movq	%rax, 96(%rsp)
	movq	$_ZNSt14_Function_base13_Base_managerIN8argparse7details12parse_numberIiLi0EEEE10_M_managerERSt9_Any_dataRKS6_St18_Manager_operation, 272(%r15)
	movq	280(%r15), %rcx
	movq	%rcx, 104(%rsp)
	movq	$_ZNSt17_Function_handlerIFSt3anyRKNSt7__cxx1112basic_stringIcSt11char_traitsIcESaIcEEEEN8argparse7details12parse_numberIiLi0EEEE9_M_invokeERKSt9_Any_dataS8_, 280(%r15)
	testq	%rax, %rax
	je	.LBB0_94
# %bb.93:
.Ltmp58:
	leaq	80(%rsp), %rdi
	movq	%rdi, %rsi
	movl	$3, %edx
	callq	*%rax
.Ltmp59:
.LBB0_94:                               # %_ZNSt7variantIJSt8functionIFSt3anyRKNSt7__cxx1112basic_stringIcSt11char_traitsIcESaIcEEEEES0_IFvS9_EEEEaSEOSE_.exit.i316
	movzbl	32(%rsp), %eax
	cmpq	$255, %rax
	movq	$-1, %rcx
	cmovneq	%rax, %rcx
.Ltmp61:
	leaq	80(%rsp), %rdi
	movq	%rsp, %rsi
	callq	*_ZNSt8__detail9__variant12__gen_vtableILb1ENS0_16__variant_cookieEOZNS0_16_Variant_storageILb0EJSt8functionIFSt3anyRKNSt7__cxx1112basic_stringIcSt11char_traitsIcESaIcEEEEES4_IFvSD_EEEE13_M_reset_implEvEUlOT_E_JRSt7variantIJSF_SH_EEEE9_S_vtableE(,%rcx,8)
.Ltmp62:
# %bb.95:                               # %_ZNSt8__detail9__variant16_Variant_storageILb0EJSt8functionIFSt3anyRKNSt7__cxx1112basic_stringIcSt11char_traitsIcESaIcEEEEES2_IFvSB_EEEED2Ev.exit.i318
	cmpb	$0, 288(%r15)
	jne	.LBB0_359
# %bb.96:                               # %_ZN8argparse8Argument4scanILc105EiEENSt9enable_ifIXsr3stdE15is_arithmetic_vIT0_EERS0_E4typeEv.exit73
	movq	328(%rsp), %rdi
	cmpq	%r14, %rdi
	je	.LBB0_98
# %bb.97:
	callq	_ZdlPv
.LBB0_98:                               # %_ZNSt7__cxx1112basic_stringIcSt11char_traitsIcESaIcEED2Ev.exit74
	movq	$8, (%rsp)
	movq	$.L.str.6, 8(%rsp)
.Ltmp67:
	movl	$360, %edi                      # imm = 0x168
	callq	_Znwm
.Ltmp68:
# %bb.99:                               # %.noexc83
	movq	%rax, %rbx
	movq	%rax, %r15
	leaq	16(%rax), %rdi
	movq	528(%rsp), %rdx
	movq	536(%rsp), %rsi
.Ltmp69:
	movq	%rsp, %rcx
	callq	_ZN8argparse8ArgumentC2ILm1EJLm0EEEESt17basic_string_viewIcSt11char_traitsIcEEOSt5arrayIS5_XT_EESt16integer_sequenceImJXspT0_EEE
.Ltmp70:
# %bb.100:                              # %_ZNSt7__cxx114listIN8argparse8ArgumentESaIS2_EE7emplaceIJRNS_12basic_stringIcSt11char_traitsIcESaIcEEESt5arrayISt17basic_string_viewIcS8_ELm1EEEEESt14_List_iteratorIS2_ESt20_List_const_iteratorIS2_EDpOT_.exit.i77
	movq	%rbx, 64(%rsp)                  # 8-byte Spill
	movq	%r15, %rdi
	leaq	624(%rsp), %rsi
	callq	_ZNSt8__detail15_List_node_base7_M_hookEPS0_
	incq	640(%rsp)
	testb	$2, 336(%r15)
	jne	.LBB0_103
# %bb.101:
	leaq	600(%rsp), %rdi
	movq	(%r15), %rdx
	cmpq	%rdi, %rdx
	je	.LBB0_103
# %bb.102:
	movq	%r15, %rsi
	callq	_ZNSt8__detail15_List_node_base11_M_transferEPS0_S1_
	incq	616(%rsp)
	decq	640(%rsp)
.LBB0_103:                              # %_ZNSt7__cxx114listIN8argparse8ArgumentESaIS2_EE6spliceESt20_List_const_iteratorIS2_ERS4_S6_.exit.i79
	movq	16(%r15), %rax
	movq	24(%r15), %rcx
	movq	%rcx, 56(%rsp)                  # 8-byte Spill
	cmpq	%rcx, %rax
	je	.LBB0_129
# %bb.104:                              # %.lr.ph.i.i80
	movq	%r15, 40(%rsp)                  # 8-byte Spill
	jmp	.LBB0_107
	.p2align	4, 0x90
.LBB0_105:                              #   in Loop: Header=BB0_107 Depth=1
	movq	%r13, %rdi
	callq	_ZdlPv
.LBB0_106:                              # %.noexc86
                                        #   in Loop: Header=BB0_107 Depth=1
	movq	48(%rsp), %rax                  # 8-byte Reload
	addq	$32, %rax
	cmpq	56(%rsp), %rax                  # 8-byte Folded Reload
	je	.LBB0_129
.LBB0_107:                              # =>This Loop Header: Depth=1
                                        #     Child Loop BB0_111 Depth 2
	movq	(%rax), %rbx
	movq	%rax, 48(%rsp)                  # 8-byte Spill
	movq	8(%rax), %rbp
	movq	664(%rsp), %rax
	leaq	656(%rsp), %rcx
	testq	%rax, %rax
	je	.LBB0_119
# %bb.108:                              # %.lr.ph.i.i.i.i325.preheader
                                        #   in Loop: Header=BB0_107 Depth=1
	leaq	656(%rsp), %r12
	jmp	.LBB0_111
	.p2align	4, 0x90
.LBB0_109:                              # %_ZNSt11char_traitsIcE7compareEPKcS2_m.exit.thread.i.i.i.i.i.i.i336
                                        #   in Loop: Header=BB0_111 Depth=2
	cmpq	$-2147483647, %r12              # imm = 0x80000001
	movq	$-2147483648, %rax              # imm = 0x80000000
	cmovlq	%rax, %r12
	cmpq	$2147483647, %r12               # imm = 0x7FFFFFFF
	movl	$2147483647, %eax               # imm = 0x7FFFFFFF
	cmovgeq	%rax, %r12
	movl	%r12d, %r14d
.LBB0_110:                              # %_ZNKSt4lessISt17basic_string_viewIcSt11char_traitsIcEEEclERKS3_S6_.exit.i.i.i.i342
                                        #   in Loop: Header=BB0_111 Depth=2
	testl	%r14d, %r14d
	movq	%r15, %r12
	cmovsq	%r13, %r12
	movl	%r14d, %eax
	shrl	$31, %eax
	movq	16(%r15,%rax,8), %rax
	testq	%rax, %rax
	je	.LBB0_113
.LBB0_111:                              # %.lr.ph.i.i.i.i325
                                        #   Parent Loop BB0_107 Depth=1
                                        # =>  This Inner Loop Header: Depth=2
	movq	%r12, %r13
	movq	%rax, %r15
	movq	32(%rax), %rdx
	movq	%rdx, %r12
	subq	%rbp, %r12
	cmovaeq	%rbp, %rdx
	testq	%rdx, %rdx
	je	.LBB0_109
# %bb.112:                              # %_ZNSt11char_traitsIcE7compareEPKcS2_m.exit.i.i.i.i.i.i.i332
                                        #   in Loop: Header=BB0_111 Depth=2
	movq	40(%r15), %rdi
	movq	%rbx, %rsi
	callq	memcmp
	movl	%eax, %r14d
	testl	%eax, %eax
	jne	.LBB0_110
	jmp	.LBB0_109
	.p2align	4, 0x90
.LBB0_113:                              # %_ZNSt3mapISt17basic_string_viewIcSt11char_traitsIcEESt14_List_iteratorIN8argparse8ArgumentEESt4lessIS3_ESaISt4pairIKS3_S7_EEE11lower_boundERSB_.exit.i343
                                        #   in Loop: Header=BB0_107 Depth=1
	leaq	656(%rsp), %rax
	movq	%rax, %rcx
	cmpq	%rax, %r12
	je	.LBB0_119
# %bb.114:                              #   in Loop: Header=BB0_107 Depth=1
	testl	%r14d, %r14d
	movq	%r15, %rax
	cmovsq	%r13, %rax
	movq	32(%rax), %rdx
	movq	%rbp, %rcx
	subq	%rdx, %rcx
	cmovbq	%rbp, %rdx
	testq	%rdx, %rdx
	je	.LBB0_118
# %bb.115:                              # %_ZNSt11char_traitsIcE7compareEPKcS2_m.exit.i.i.i.i348
                                        #   in Loop: Header=BB0_107 Depth=1
	testl	%r14d, %r14d
	movq	%r15, %rax
	cmovsq	%r13, %rax
	movq	40(%rax), %rsi
	movq	%rbx, %rdi
	movq	%rcx, 72(%rsp)                  # 8-byte Spill
	callq	memcmp
	movq	72(%rsp), %rcx                  # 8-byte Reload
	testl	%eax, %eax
	je	.LBB0_118
# %bb.116:                              # %_ZNKSt4lessISt17basic_string_viewIcSt11char_traitsIcEEEclERKS3_S6_.exit.i354
                                        #   in Loop: Header=BB0_107 Depth=1
	movq	%r12, %rcx
	testl	%eax, %eax
	js	.LBB0_119
.LBB0_117:                              #   in Loop: Header=BB0_107 Depth=1
	testl	%r14d, %r14d
	cmovsq	%r13, %r15
	movq	40(%rsp), %rax                  # 8-byte Reload
	movq	%rax, 48(%r15)
	movq	%rax, %r15
	jmp	.LBB0_106
	.p2align	4, 0x90
.LBB0_118:                              # %_ZNSt11char_traitsIcE7compareEPKcS2_m.exit.thread.i.i.i.i352
                                        #   in Loop: Header=BB0_107 Depth=1
	cmpq	$-2147483647, %rcx              # imm = 0x80000001
	movq	$-2147483648, %rax              # imm = 0x80000000
	cmovlq	%rax, %rcx
	cmpq	$2147483647, %rcx               # imm = 0x7FFFFFFF
	movl	$2147483647, %eax               # imm = 0x7FFFFFFF
	cmovgeq	%rax, %rcx
	movl	%ecx, %eax
	movq	%r12, %rcx
	testl	%eax, %eax
	jns	.LBB0_117
	.p2align	4, 0x90
.LBB0_119:                              # %.critedge.i356
                                        #   in Loop: Header=BB0_107 Depth=1
.Ltmp72:
	movq	%rcx, %r12
	movl	$56, %edi
	callq	_Znwm
.Ltmp73:
# %bb.120:                              # %.noexc617
                                        #   in Loop: Header=BB0_107 Depth=1
	movq	%rax, %r13
	movq	%rax, %r14
	addq	$32, %r14
	movq	%rbp, 32(%rax)
	movq	%rbx, 40(%rax)
	movq	40(%rsp), %r15                  # 8-byte Reload
	movq	%r15, 48(%rax)
.Ltmp75:
	leaq	648(%rsp), %rdi
	movq	%r12, %rsi
	movq	%r14, %rdx
	callq	_ZNSt8_Rb_treeISt17basic_string_viewIcSt11char_traitsIcEESt4pairIKS3_St14_List_iteratorIN8argparse8ArgumentEEESt10_Select1stISA_ESt4lessIS3_ESaISA_EE29_M_get_insert_hint_unique_posESt23_Rb_tree_const_iteratorISA_ERS5_
.Ltmp76:
# %bb.121:                              #   in Loop: Header=BB0_107 Depth=1
	movq	%rdx, %rbx
	testq	%rdx, %rdx
	je	.LBB0_105
# %bb.122:                              #   in Loop: Header=BB0_107 Depth=1
	movq	%rax, %rcx
	movb	$1, %al
	testq	%rcx, %rcx
	jne	.LBB0_128
# %bb.123:                              #   in Loop: Header=BB0_107 Depth=1
	leaq	656(%rsp), %rcx
	cmpq	%rbx, %rcx
	je	.LBB0_128
# %bb.124:                              #   in Loop: Header=BB0_107 Depth=1
	movq	(%r14), %rax
	movq	32(%rbx), %rdx
	movq	%rax, %r14
	subq	%rdx, %r14
	cmovbq	%rax, %rdx
	testq	%rdx, %rdx
	je	.LBB0_126
# %bb.125:                              # %_ZNSt11char_traitsIcE7compareEPKcS2_m.exit.i.i.i.i.i609
                                        #   in Loop: Header=BB0_107 Depth=1
	movq	40(%rbx), %rsi
	movq	40(%r13), %rdi
	callq	memcmp
	testl	%eax, %eax
	jne	.LBB0_127
.LBB0_126:                              # %_ZNSt11char_traitsIcE7compareEPKcS2_m.exit.thread.i.i.i.i.i613
                                        #   in Loop: Header=BB0_107 Depth=1
	cmpq	$-2147483647, %r14              # imm = 0x80000001
	movq	$-2147483648, %rax              # imm = 0x80000000
	cmovlq	%rax, %r14
	cmpq	$2147483647, %r14               # imm = 0x7FFFFFFF
	movl	$2147483647, %eax               # imm = 0x7FFFFFFF
	cmovgeq	%rax, %r14
	movl	%r14d, %eax
.LBB0_127:                              # %_ZNKSt4lessISt17basic_string_viewIcSt11char_traitsIcEEEclERKS3_S6_.exit.i.i615
                                        #   in Loop: Header=BB0_107 Depth=1
	shrl	$31, %eax
.LBB0_128:                              #   in Loop: Header=BB0_107 Depth=1
	movzbl	%al, %edi
	movq	%r13, %rsi
	movq	%rbx, %rdx
	leaq	656(%rsp), %rcx
	callq	_ZSt29_Rb_tree_insert_and_rebalancebPSt18_Rb_tree_node_baseS0_RS_
	incq	688(%rsp)
	jmp	.LBB0_106
.LBB0_129:                              # %_ZN8argparse8Argument4helpENSt7__cxx1112basic_stringIcSt11char_traitsIcESaIcEEE.exit98
	leaq	312(%rsp), %r14
	movq	%r14, 296(%rsp)
	movabsq	$7599578580769599081, %rax      # imm = 0x6977207475706E69
	movq	%rax, 312(%rsp)
	movl	$1752458345, 319(%rsp)          # imm = 0x68746469
	movq	$11, 304(%rsp)
	movb	$0, 323(%rsp)
	movq	56(%r15), %rcx
	movq	%rax, (%rcx)
	movl	$1752458345, 7(%rcx)            # imm = 0x68746469
	movq	304(%rsp), %rax
	movq	%rax, 64(%r15)
	movq	56(%r15), %rcx
	movb	$0, (%rcx,%rax)
	movq	296(%rsp), %rax
	movq	$0, 304(%rsp)
	movb	$0, (%rax)
	movq	64(%rsp), %rbx                  # 8-byte Reload
	addq	$256, %rbx                      # imm = 0x100
	movq	$_ZNSt17_Function_handlerIFSt3anyRKNSt7__cxx1112basic_stringIcSt11char_traitsIcESaIcEEEEN8argparse7details12parse_numberIiLi0EEEE9_M_invokeERKSt9_Any_dataS8_, 24(%rsp)
	movq	$_ZNSt14_Function_base13_Base_managerIN8argparse7details12parse_numberIiLi0EEEE10_M_managerERSt9_Any_dataRKS6_St18_Manager_operation, 16(%rsp)
	movb	$0, 32(%rsp)
	movzbl	288(%r15), %eax
	testq	%rax, %rax
	je	.LBB0_132
# %bb.130:
	cmpb	$-1, %al
	movq	$-1, %rcx
	cmovneq	%rax, %rcx
.Ltmp84:
	leaq	80(%rsp), %rdi
	movq	%rbx, %rsi
	callq	*_ZNSt8__detail9__variant12__gen_vtableILb1ENS0_16__variant_cookieEOZNS0_16_Variant_storageILb0EJSt8functionIFSt3anyRKNSt7__cxx1112basic_stringIcSt11char_traitsIcESaIcEEEEES4_IFvSD_EEEE13_M_reset_implEvEUlOT_E_JRSt7variantIJSF_SH_EEEE9_S_vtableE(,%rcx,8)
.Ltmp85:
# %bb.131:                              # %.noexc626
	movb	$0, 288(%r15)
	movaps	(%rsp), %xmm0
	movaps	%xmm0, 80(%rsp)
	movups	(%rbx), %xmm1
	movaps	%xmm1, (%rsp)
	movups	%xmm0, (%rbx)
	movq	280(%r15), %rax
	movaps	16(%rsp), %xmm0
	movq	$0, 16(%rsp)
	movq	%rax, 24(%rsp)
	movups	%xmm0, 272(%r15)
	jmp	.LBB0_134
.LBB0_132:
	movq	$0, 16(%rsp)
	movups	(%rbx), %xmm0
	movaps	%xmm0, 80(%rsp)
	movq	272(%r15), %rax
	movq	%rax, 96(%rsp)
	movq	$_ZNSt14_Function_base13_Base_managerIN8argparse7details12parse_numberIiLi0EEEE10_M_managerERSt9_Any_dataRKS6_St18_Manager_operation, 272(%r15)
	movq	280(%r15), %rcx
	movq	%rcx, 104(%rsp)
	movq	$_ZNSt17_Function_handlerIFSt3anyRKNSt7__cxx1112basic_stringIcSt11char_traitsIcESaIcEEEEN8argparse7details12parse_numberIiLi0EEEE9_M_invokeERKSt9_Any_dataS8_, 280(%r15)
	testq	%rax, %rax
	je	.LBB0_134
# %bb.133:
.Ltmp87:
	leaq	80(%rsp), %rdi
	movq	%rdi, %rsi
	movl	$3, %edx
	callq	*%rax
.Ltmp88:
.LBB0_134:                              # %_ZNSt7variantIJSt8functionIFSt3anyRKNSt7__cxx1112basic_stringIcSt11char_traitsIcESaIcEEEEES0_IFvS9_EEEEaSEOSE_.exit.i364
	movzbl	32(%rsp), %eax
	cmpq	$255, %rax
	movq	$-1, %rcx
	cmovneq	%rax, %rcx
.Ltmp90:
	leaq	80(%rsp), %rdi
	movq	%rsp, %rsi
	callq	*_ZNSt8__detail9__variant12__gen_vtableILb1ENS0_16__variant_cookieEOZNS0_16_Variant_storageILb0EJSt8functionIFSt3anyRKNSt7__cxx1112basic_stringIcSt11char_traitsIcESaIcEEEEES4_IFvSD_EEEE13_M_reset_implEvEUlOT_E_JRSt7variantIJSF_SH_EEEE9_S_vtableE(,%rcx,8)
.Ltmp91:
# %bb.135:                              # %_ZNSt8__detail9__variant16_Variant_storageILb0EJSt8functionIFSt3anyRKNSt7__cxx1112basic_stringIcSt11char_traitsIcESaIcEEEEES2_IFvSB_EEEED2Ev.exit.i366
	cmpb	$0, 288(%r15)
	jne	.LBB0_361
# %bb.136:                              # %_ZN8argparse8Argument4scanILc105EiEENSt9enable_ifIXsr3stdE15is_arithmetic_vIT0_EERS0_E4typeEv.exit100
	movq	296(%rsp), %rdi
	cmpq	%r14, %rdi
	je	.LBB0_138
# %bb.137:
	callq	_ZdlPv
.LBB0_138:                              # %_ZNSt7__cxx1112basic_stringIcSt11char_traitsIcESaIcEED2Ev.exit101
	movq	$13, (%rsp)
	movq	$.L.str.8, 8(%rsp)
.Ltmp96:
	movl	$360, %edi                      # imm = 0x168
	callq	_Znwm
.Ltmp97:
# %bb.139:                              # %.noexc110
	movq	%rax, %rbx
	movq	%rax, %r15
	leaq	16(%rax), %rdi
	movq	528(%rsp), %rdx
	movq	536(%rsp), %rsi
.Ltmp98:
	movq	%rsp, %rcx
	callq	_ZN8argparse8ArgumentC2ILm1EJLm0EEEESt17basic_string_viewIcSt11char_traitsIcEEOSt5arrayIS5_XT_EESt16integer_sequenceImJXspT0_EEE
.Ltmp99:
# %bb.140:                              # %_ZNSt7__cxx114listIN8argparse8ArgumentESaIS2_EE7emplaceIJRNS_12basic_stringIcSt11char_traitsIcESaIcEEESt5arrayISt17basic_string_viewIcS8_ELm1EEEEESt14_List_iteratorIS2_ESt20_List_const_iteratorIS2_EDpOT_.exit.i104
	movq	%rbx, 64(%rsp)                  # 8-byte Spill
	movq	%r15, %rdi
	leaq	624(%rsp), %rsi
	callq	_ZNSt8__detail15_List_node_base7_M_hookEPS0_
	incq	640(%rsp)
	testb	$2, 336(%r15)
	jne	.LBB0_143
# %bb.141:
	leaq	600(%rsp), %rdi
	movq	(%r15), %rdx
	cmpq	%rdi, %rdx
	je	.LBB0_143
# %bb.142:
	movq	%r15, %rsi
	callq	_ZNSt8__detail15_List_node_base11_M_transferEPS0_S1_
	incq	616(%rsp)
	decq	640(%rsp)
.LBB0_143:                              # %_ZNSt7__cxx114listIN8argparse8ArgumentESaIS2_EE6spliceESt20_List_const_iteratorIS2_ERS4_S6_.exit.i106
	movq	16(%r15), %r12
	movq	24(%r15), %rax
	movq	%rax, 56(%rsp)                  # 8-byte Spill
	cmpq	%rax, %r12
	je	.LBB0_169
# %bb.144:                              # %.lr.ph.i.i107
	movq	%r15, 40(%rsp)                  # 8-byte Spill
	jmp	.LBB0_147
	.p2align	4, 0x90
.LBB0_145:                              #   in Loop: Header=BB0_147 Depth=1
	movq	%r13, %rdi
	callq	_ZdlPv
.LBB0_146:                              # %.noexc113
                                        #   in Loop: Header=BB0_147 Depth=1
	addq	$32, %r12
	cmpq	56(%rsp), %r12                  # 8-byte Folded Reload
	je	.LBB0_169
.LBB0_147:                              # =>This Loop Header: Depth=1
                                        #     Child Loop BB0_151 Depth 2
	movq	(%r12), %rbx
	movq	%r12, 48(%rsp)                  # 8-byte Spill
	movq	8(%r12), %rbp
	movq	664(%rsp), %rax
	leaq	656(%rsp), %rcx
	testq	%rax, %rax
	je	.LBB0_159
# %bb.148:                              # %.lr.ph.i.i.i.i373.preheader
                                        #   in Loop: Header=BB0_147 Depth=1
	leaq	656(%rsp), %r12
	jmp	.LBB0_151
	.p2align	4, 0x90
.LBB0_149:                              # %_ZNSt11char_traitsIcE7compareEPKcS2_m.exit.thread.i.i.i.i.i.i.i384
                                        #   in Loop: Header=BB0_151 Depth=2
	cmpq	$-2147483647, %r12              # imm = 0x80000001
	movq	$-2147483648, %rax              # imm = 0x80000000
	cmovlq	%rax, %r12
	cmpq	$2147483647, %r12               # imm = 0x7FFFFFFF
	movl	$2147483647, %eax               # imm = 0x7FFFFFFF
	cmovgeq	%rax, %r12
	movl	%r12d, %r14d
.LBB0_150:                              # %_ZNKSt4lessISt17basic_string_viewIcSt11char_traitsIcEEEclERKS3_S6_.exit.i.i.i.i390
                                        #   in Loop: Header=BB0_151 Depth=2
	testl	%r14d, %r14d
	movq	%r15, %r12
	cmovsq	%r13, %r12
	movl	%r14d, %eax
	shrl	$31, %eax
	movq	16(%r15,%rax,8), %rax
	testq	%rax, %rax
	je	.LBB0_153
.LBB0_151:                              # %.lr.ph.i.i.i.i373
                                        #   Parent Loop BB0_147 Depth=1
                                        # =>  This Inner Loop Header: Depth=2
	movq	%r12, %r13
	movq	%rax, %r15
	movq	32(%rax), %rdx
	movq	%rdx, %r12
	subq	%rbp, %r12
	cmovaeq	%rbp, %rdx
	testq	%rdx, %rdx
	je	.LBB0_149
# %bb.152:                              # %_ZNSt11char_traitsIcE7compareEPKcS2_m.exit.i.i.i.i.i.i.i380
                                        #   in Loop: Header=BB0_151 Depth=2
	movq	40(%r15), %rdi
	movq	%rbx, %rsi
	callq	memcmp
	movl	%eax, %r14d
	testl	%eax, %eax
	jne	.LBB0_150
	jmp	.LBB0_149
	.p2align	4, 0x90
.LBB0_153:                              # %_ZNSt3mapISt17basic_string_viewIcSt11char_traitsIcEESt14_List_iteratorIN8argparse8ArgumentEESt4lessIS3_ESaISt4pairIKS3_S7_EEE11lower_boundERSB_.exit.i391
                                        #   in Loop: Header=BB0_147 Depth=1
	leaq	656(%rsp), %rax
	movq	%rax, %rcx
	cmpq	%rax, %r12
	je	.LBB0_159
# %bb.154:                              #   in Loop: Header=BB0_147 Depth=1
	testl	%r14d, %r14d
	movq	%r15, %rax
	cmovsq	%r13, %rax
	movq	32(%rax), %rdx
	movq	%rbp, %rcx
	subq	%rdx, %rcx
	cmovbq	%rbp, %rdx
	testq	%rdx, %rdx
	je	.LBB0_158
# %bb.155:                              # %_ZNSt11char_traitsIcE7compareEPKcS2_m.exit.i.i.i.i396
                                        #   in Loop: Header=BB0_147 Depth=1
	testl	%r14d, %r14d
	movq	%r15, %rax
	cmovsq	%r13, %rax
	movq	40(%rax), %rsi
	movq	%rbx, %rdi
	movq	%rcx, 72(%rsp)                  # 8-byte Spill
	callq	memcmp
	movq	72(%rsp), %rcx                  # 8-byte Reload
	testl	%eax, %eax
	je	.LBB0_158
# %bb.156:                              # %_ZNKSt4lessISt17basic_string_viewIcSt11char_traitsIcEEEclERKS3_S6_.exit.i402
                                        #   in Loop: Header=BB0_147 Depth=1
	movq	%r12, %rcx
	testl	%eax, %eax
	js	.LBB0_159
.LBB0_157:                              #   in Loop: Header=BB0_147 Depth=1
	testl	%r14d, %r14d
	cmovsq	%r13, %r15
	movq	40(%rsp), %rax                  # 8-byte Reload
	movq	%rax, 48(%r15)
	movq	%rax, %r15
	movq	48(%rsp), %r12                  # 8-byte Reload
	jmp	.LBB0_146
	.p2align	4, 0x90
.LBB0_158:                              # %_ZNSt11char_traitsIcE7compareEPKcS2_m.exit.thread.i.i.i.i400
                                        #   in Loop: Header=BB0_147 Depth=1
	cmpq	$-2147483647, %rcx              # imm = 0x80000001
	movq	$-2147483648, %rax              # imm = 0x80000000
	cmovlq	%rax, %rcx
	cmpq	$2147483647, %rcx               # imm = 0x7FFFFFFF
	movl	$2147483647, %eax               # imm = 0x7FFFFFFF
	cmovgeq	%rax, %rcx
	movl	%ecx, %eax
	movq	%r12, %rcx
	testl	%eax, %eax
	jns	.LBB0_157
	.p2align	4, 0x90
.LBB0_159:                              # %.critedge.i404
                                        #   in Loop: Header=BB0_147 Depth=1
.Ltmp101:
	movq	%rcx, %r12
	movl	$56, %edi
	callq	_Znwm
.Ltmp102:
# %bb.160:                              # %.noexc647
                                        #   in Loop: Header=BB0_147 Depth=1
	movq	%rax, %r13
	movq	%rax, %r14
	addq	$32, %r14
	movq	%rbp, 32(%rax)
	movq	%rbx, 40(%rax)
	movq	40(%rsp), %r15                  # 8-byte Reload
	movq	%r15, 48(%rax)
.Ltmp104:
	leaq	648(%rsp), %rdi
	movq	%r12, %rsi
	movq	%r14, %rdx
	callq	_ZNSt8_Rb_treeISt17basic_string_viewIcSt11char_traitsIcEESt4pairIKS3_St14_List_iteratorIN8argparse8ArgumentEEESt10_Select1stISA_ESt4lessIS3_ESaISA_EE29_M_get_insert_hint_unique_posESt23_Rb_tree_const_iteratorISA_ERS5_
.Ltmp105:
# %bb.161:                              #   in Loop: Header=BB0_147 Depth=1
	movq	%rdx, %rbx
	testq	%rdx, %rdx
	movq	48(%rsp), %r12                  # 8-byte Reload
	je	.LBB0_145
# %bb.162:                              #   in Loop: Header=BB0_147 Depth=1
	movq	%rax, %rcx
	movb	$1, %al
	testq	%rcx, %rcx
	jne	.LBB0_168
# %bb.163:                              #   in Loop: Header=BB0_147 Depth=1
	leaq	656(%rsp), %rcx
	cmpq	%rbx, %rcx
	je	.LBB0_168
# %bb.164:                              #   in Loop: Header=BB0_147 Depth=1
	movq	(%r14), %rax
	movq	32(%rbx), %rdx
	movq	%rax, %r14
	subq	%rdx, %r14
	cmovbq	%rax, %rdx
	testq	%rdx, %rdx
	je	.LBB0_166
# %bb.165:                              # %_ZNSt11char_traitsIcE7compareEPKcS2_m.exit.i.i.i.i.i639
                                        #   in Loop: Header=BB0_147 Depth=1
	movq	40(%rbx), %rsi
	movq	40(%r13), %rdi
	callq	memcmp
	testl	%eax, %eax
	jne	.LBB0_167
.LBB0_166:                              # %_ZNSt11char_traitsIcE7compareEPKcS2_m.exit.thread.i.i.i.i.i643
                                        #   in Loop: Header=BB0_147 Depth=1
	cmpq	$-2147483647, %r14              # imm = 0x80000001
	movq	$-2147483648, %rax              # imm = 0x80000000
	cmovlq	%rax, %r14
	cmpq	$2147483647, %r14               # imm = 0x7FFFFFFF
	movl	$2147483647, %eax               # imm = 0x7FFFFFFF
	cmovgeq	%rax, %r14
	movl	%r14d, %eax
.LBB0_167:                              # %_ZNKSt4lessISt17basic_string_viewIcSt11char_traitsIcEEEclERKS3_S6_.exit.i.i645
                                        #   in Loop: Header=BB0_147 Depth=1
	shrl	$31, %eax
.LBB0_168:                              #   in Loop: Header=BB0_147 Depth=1
	movzbl	%al, %edi
	movq	%r13, %rsi
	movq	%rbx, %rdx
	leaq	656(%rsp), %rcx
	callq	_ZSt29_Rb_tree_insert_and_rebalancebPSt18_Rb_tree_node_baseS0_RS_
	incq	688(%rsp)
	jmp	.LBB0_146
.LBB0_169:                              # %_ZN8argparse8Argument4helpENSt7__cxx1112basic_stringIcSt11char_traitsIcESaIcEEE.exit125
	leaq	280(%rsp), %r14
	movq	%r14, 264(%rsp)
	movabsq	$7503116162099733867, %rax      # imm = 0x68206C656E72656B
	movq	%rax, 280(%rsp)
	movabsq	$8388068008348098668, %rcx      # imm = 0x746867696568206C
	movq	%rcx, 285(%rsp)
	movq	$13, 272(%rsp)
	movb	$0, 293(%rsp)
	movq	56(%r15), %rdx
	movq	%rcx, 5(%rdx)
	movq	%rax, (%rdx)
	movq	272(%rsp), %rax
	movq	%rax, 64(%r15)
	movq	56(%r15), %rcx
	movb	$0, (%rcx,%rax)
	movq	264(%rsp), %rax
	movq	$0, 272(%rsp)
	movb	$0, (%rax)
	movq	64(%rsp), %rbx                  # 8-byte Reload
	addq	$256, %rbx                      # imm = 0x100
	movq	$_ZNSt17_Function_handlerIFSt3anyRKNSt7__cxx1112basic_stringIcSt11char_traitsIcESaIcEEEEN8argparse7details12parse_numberIiLi0EEEE9_M_invokeERKSt9_Any_dataS8_, 24(%rsp)
	movq	$_ZNSt14_Function_base13_Base_managerIN8argparse7details12parse_numberIiLi0EEEE10_M_managerERSt9_Any_dataRKS6_St18_Manager_operation, 16(%rsp)
	movb	$0, 32(%rsp)
	movzbl	288(%r15), %eax
	testq	%rax, %rax
	je	.LBB0_172
# %bb.170:
	cmpb	$-1, %al
	movq	$-1, %rcx
	cmovneq	%rax, %rcx
.Ltmp113:
	leaq	80(%rsp), %rdi
	movq	%rbx, %rsi
	callq	*_ZNSt8__detail9__variant12__gen_vtableILb1ENS0_16__variant_cookieEOZNS0_16_Variant_storageILb0EJSt8functionIFSt3anyRKNSt7__cxx1112basic_stringIcSt11char_traitsIcESaIcEEEEES4_IFvSD_EEEE13_M_reset_implEvEUlOT_E_JRSt7variantIJSF_SH_EEEE9_S_vtableE(,%rcx,8)
.Ltmp114:
# %bb.171:                              # %.noexc656
	movb	$0, 288(%r15)
	movaps	(%rsp), %xmm0
	movaps	%xmm0, 80(%rsp)
	movups	(%rbx), %xmm1
	movaps	%xmm1, (%rsp)
	movups	%xmm0, (%rbx)
	movq	280(%r15), %rax
	movaps	16(%rsp), %xmm0
	movq	$0, 16(%rsp)
	movq	%rax, 24(%rsp)
	movups	%xmm0, 272(%r15)
	jmp	.LBB0_174
.LBB0_172:
	movq	$0, 16(%rsp)
	movups	(%rbx), %xmm0
	movaps	%xmm0, 80(%rsp)
	movq	272(%r15), %rax
	movq	%rax, 96(%rsp)
	movq	$_ZNSt14_Function_base13_Base_managerIN8argparse7details12parse_numberIiLi0EEEE10_M_managerERSt9_Any_dataRKS6_St18_Manager_operation, 272(%r15)
	movq	280(%r15), %rcx
	movq	%rcx, 104(%rsp)
	movq	$_ZNSt17_Function_handlerIFSt3anyRKNSt7__cxx1112basic_stringIcSt11char_traitsIcESaIcEEEEN8argparse7details12parse_numberIiLi0EEEE9_M_invokeERKSt9_Any_dataS8_, 280(%r15)
	testq	%rax, %rax
	je	.LBB0_174
# %bb.173:
.Ltmp116:
	leaq	80(%rsp), %rdi
	movq	%rdi, %rsi
	movl	$3, %edx
	callq	*%rax
.Ltmp117:
.LBB0_174:                              # %_ZNSt7variantIJSt8functionIFSt3anyRKNSt7__cxx1112basic_stringIcSt11char_traitsIcESaIcEEEEES0_IFvS9_EEEEaSEOSE_.exit.i412
	movzbl	32(%rsp), %eax
	cmpq	$255, %rax
	movq	$-1, %rcx
	cmovneq	%rax, %rcx
.Ltmp119:
	leaq	80(%rsp), %rdi
	movq	%rsp, %rsi
	callq	*_ZNSt8__detail9__variant12__gen_vtableILb1ENS0_16__variant_cookieEOZNS0_16_Variant_storageILb0EJSt8functionIFSt3anyRKNSt7__cxx1112basic_stringIcSt11char_traitsIcESaIcEEEEES4_IFvSD_EEEE13_M_reset_implEvEUlOT_E_JRSt7variantIJSF_SH_EEEE9_S_vtableE(,%rcx,8)
.Ltmp120:
# %bb.175:                              # %_ZNSt8__detail9__variant16_Variant_storageILb0EJSt8functionIFSt3anyRKNSt7__cxx1112basic_stringIcSt11char_traitsIcESaIcEEEEES2_IFvSB_EEEED2Ev.exit.i414
	cmpb	$0, 288(%r15)
	jne	.LBB0_363
# %bb.176:                              # %_ZN8argparse8Argument4scanILc105EiEENSt9enable_ifIXsr3stdE15is_arithmetic_vIT0_EERS0_E4typeEv.exit127
	movq	264(%rsp), %rdi
	cmpq	%r14, %rdi
	je	.LBB0_178
# %bb.177:
	callq	_ZdlPv
.LBB0_178:                              # %_ZNSt7__cxx1112basic_stringIcSt11char_traitsIcESaIcEED2Ev.exit128
	movq	$12, (%rsp)
	movq	$.L.str.10, 8(%rsp)
.Ltmp125:
	movl	$360, %edi                      # imm = 0x168
	callq	_Znwm
.Ltmp126:
# %bb.179:                              # %.noexc137
	movq	%rax, %rbx
	movq	%rax, %r15
	leaq	16(%rax), %rdi
	movq	528(%rsp), %rdx
	movq	536(%rsp), %rsi
.Ltmp127:
	movq	%rsp, %rcx
	callq	_ZN8argparse8ArgumentC2ILm1EJLm0EEEESt17basic_string_viewIcSt11char_traitsIcEEOSt5arrayIS5_XT_EESt16integer_sequenceImJXspT0_EEE
.Ltmp128:
# %bb.180:                              # %_ZNSt7__cxx114listIN8argparse8ArgumentESaIS2_EE7emplaceIJRNS_12basic_stringIcSt11char_traitsIcESaIcEEESt5arrayISt17basic_string_viewIcS8_ELm1EEEEESt14_List_iteratorIS2_ESt20_List_const_iteratorIS2_EDpOT_.exit.i131
	movq	%rbx, 64(%rsp)                  # 8-byte Spill
	movq	%r15, %rdi
	leaq	624(%rsp), %rsi
	callq	_ZNSt8__detail15_List_node_base7_M_hookEPS0_
	incq	640(%rsp)
	testb	$2, 336(%r15)
	jne	.LBB0_183
# %bb.181:
	leaq	600(%rsp), %rdi
	movq	(%r15), %rdx
	cmpq	%rdi, %rdx
	je	.LBB0_183
# %bb.182:
	movq	%r15, %rsi
	callq	_ZNSt8__detail15_List_node_base11_M_transferEPS0_S1_
	incq	616(%rsp)
	decq	640(%rsp)
.LBB0_183:                              # %_ZNSt7__cxx114listIN8argparse8ArgumentESaIS2_EE6spliceESt20_List_const_iteratorIS2_ERS4_S6_.exit.i133
	movq	16(%r15), %rax
	movq	24(%r15), %rcx
	movq	%rcx, 56(%rsp)                  # 8-byte Spill
	cmpq	%rcx, %rax
	je	.LBB0_209
# %bb.184:                              # %.lr.ph.i.i134
	movq	%r15, 40(%rsp)                  # 8-byte Spill
	jmp	.LBB0_187
	.p2align	4, 0x90
.LBB0_185:                              #   in Loop: Header=BB0_187 Depth=1
	movq	%r13, %rdi
	callq	_ZdlPv
.LBB0_186:                              # %.noexc140
                                        #   in Loop: Header=BB0_187 Depth=1
	movq	48(%rsp), %rax                  # 8-byte Reload
	addq	$32, %rax
	cmpq	56(%rsp), %rax                  # 8-byte Folded Reload
	je	.LBB0_209
.LBB0_187:                              # =>This Loop Header: Depth=1
                                        #     Child Loop BB0_191 Depth 2
	movq	(%rax), %rbx
	movq	%rax, 48(%rsp)                  # 8-byte Spill
	movq	8(%rax), %rbp
	movq	664(%rsp), %rax
	leaq	656(%rsp), %rcx
	testq	%rax, %rax
	je	.LBB0_199
# %bb.188:                              # %.lr.ph.i.i.i.i421.preheader
                                        #   in Loop: Header=BB0_187 Depth=1
	leaq	656(%rsp), %r12
	jmp	.LBB0_191
	.p2align	4, 0x90
.LBB0_189:                              # %_ZNSt11char_traitsIcE7compareEPKcS2_m.exit.thread.i.i.i.i.i.i.i432
                                        #   in Loop: Header=BB0_191 Depth=2
	cmpq	$-2147483647, %r12              # imm = 0x80000001
	movq	$-2147483648, %rax              # imm = 0x80000000
	cmovlq	%rax, %r12
	cmpq	$2147483647, %r12               # imm = 0x7FFFFFFF
	movl	$2147483647, %eax               # imm = 0x7FFFFFFF
	cmovgeq	%rax, %r12
	movl	%r12d, %r14d
.LBB0_190:                              # %_ZNKSt4lessISt17basic_string_viewIcSt11char_traitsIcEEEclERKS3_S6_.exit.i.i.i.i438
                                        #   in Loop: Header=BB0_191 Depth=2
	testl	%r14d, %r14d
	movq	%r15, %r12
	cmovsq	%r13, %r12
	movl	%r14d, %eax
	shrl	$31, %eax
	movq	16(%r15,%rax,8), %rax
	testq	%rax, %rax
	je	.LBB0_193
.LBB0_191:                              # %.lr.ph.i.i.i.i421
                                        #   Parent Loop BB0_187 Depth=1
                                        # =>  This Inner Loop Header: Depth=2
	movq	%r12, %r13
	movq	%rax, %r15
	movq	32(%rax), %rdx
	movq	%rdx, %r12
	subq	%rbp, %r12
	cmovaeq	%rbp, %rdx
	testq	%rdx, %rdx
	je	.LBB0_189
# %bb.192:                              # %_ZNSt11char_traitsIcE7compareEPKcS2_m.exit.i.i.i.i.i.i.i428
                                        #   in Loop: Header=BB0_191 Depth=2
	movq	40(%r15), %rdi
	movq	%rbx, %rsi
	callq	memcmp
	movl	%eax, %r14d
	testl	%eax, %eax
	jne	.LBB0_190
	jmp	.LBB0_189
	.p2align	4, 0x90
.LBB0_193:                              # %_ZNSt3mapISt17basic_string_viewIcSt11char_traitsIcEESt14_List_iteratorIN8argparse8ArgumentEESt4lessIS3_ESaISt4pairIKS3_S7_EEE11lower_boundERSB_.exit.i439
                                        #   in Loop: Header=BB0_187 Depth=1
	leaq	656(%rsp), %rax
	movq	%rax, %rcx
	cmpq	%rax, %r12
	je	.LBB0_199
# %bb.194:                              #   in Loop: Header=BB0_187 Depth=1
	testl	%r14d, %r14d
	movq	%r15, %rax
	cmovsq	%r13, %rax
	movq	32(%rax), %rdx
	movq	%rbp, %rcx
	subq	%rdx, %rcx
	cmovbq	%rbp, %rdx
	testq	%rdx, %rdx
	je	.LBB0_198
# %bb.195:                              # %_ZNSt11char_traitsIcE7compareEPKcS2_m.exit.i.i.i.i444
                                        #   in Loop: Header=BB0_187 Depth=1
	testl	%r14d, %r14d
	movq	%r15, %rax
	cmovsq	%r13, %rax
	movq	40(%rax), %rsi
	movq	%rbx, %rdi
	movq	%rcx, 72(%rsp)                  # 8-byte Spill
	callq	memcmp
	movq	72(%rsp), %rcx                  # 8-byte Reload
	testl	%eax, %eax
	je	.LBB0_198
# %bb.196:                              # %_ZNKSt4lessISt17basic_string_viewIcSt11char_traitsIcEEEclERKS3_S6_.exit.i450
                                        #   in Loop: Header=BB0_187 Depth=1
	movq	%r12, %rcx
	testl	%eax, %eax
	js	.LBB0_199
.LBB0_197:                              #   in Loop: Header=BB0_187 Depth=1
	testl	%r14d, %r14d
	cmovsq	%r13, %r15
	movq	40(%rsp), %rax                  # 8-byte Reload
	movq	%rax, 48(%r15)
	movq	%rax, %r15
	jmp	.LBB0_186
	.p2align	4, 0x90
.LBB0_198:                              # %_ZNSt11char_traitsIcE7compareEPKcS2_m.exit.thread.i.i.i.i448
                                        #   in Loop: Header=BB0_187 Depth=1
	cmpq	$-2147483647, %rcx              # imm = 0x80000001
	movq	$-2147483648, %rax              # imm = 0x80000000
	cmovlq	%rax, %rcx
	cmpq	$2147483647, %rcx               # imm = 0x7FFFFFFF
	movl	$2147483647, %eax               # imm = 0x7FFFFFFF
	cmovgeq	%rax, %rcx
	movl	%ecx, %eax
	movq	%r12, %rcx
	testl	%eax, %eax
	jns	.LBB0_197
	.p2align	4, 0x90
.LBB0_199:                              # %.critedge.i452
                                        #   in Loop: Header=BB0_187 Depth=1
.Ltmp130:
	movq	%rcx, %r12
	movl	$56, %edi
	callq	_Znwm
.Ltmp131:
# %bb.200:                              # %.noexc677
                                        #   in Loop: Header=BB0_187 Depth=1
	movq	%rax, %r13
	movq	%rax, %r14
	addq	$32, %r14
	movq	%rbp, 32(%rax)
	movq	%rbx, 40(%rax)
	movq	40(%rsp), %r15                  # 8-byte Reload
	movq	%r15, 48(%rax)
.Ltmp133:
	leaq	648(%rsp), %rdi
	movq	%r12, %rsi
	movq	%r14, %rdx
	callq	_ZNSt8_Rb_treeISt17basic_string_viewIcSt11char_traitsIcEESt4pairIKS3_St14_List_iteratorIN8argparse8ArgumentEEESt10_Select1stISA_ESt4lessIS3_ESaISA_EE29_M_get_insert_hint_unique_posESt23_Rb_tree_const_iteratorISA_ERS5_
.Ltmp134:
# %bb.201:                              #   in Loop: Header=BB0_187 Depth=1
	movq	%rdx, %rbx
	testq	%rdx, %rdx
	je	.LBB0_185
# %bb.202:                              #   in Loop: Header=BB0_187 Depth=1
	movq	%rax, %rcx
	movb	$1, %al
	testq	%rcx, %rcx
	jne	.LBB0_208
# %bb.203:                              #   in Loop: Header=BB0_187 Depth=1
	leaq	656(%rsp), %rcx
	cmpq	%rbx, %rcx
	je	.LBB0_208
# %bb.204:                              #   in Loop: Header=BB0_187 Depth=1
	movq	(%r14), %rax
	movq	32(%rbx), %rdx
	movq	%rax, %r14
	subq	%rdx, %r14
	cmovbq	%rax, %rdx
	testq	%rdx, %rdx
	je	.LBB0_206
# %bb.205:                              # %_ZNSt11char_traitsIcE7compareEPKcS2_m.exit.i.i.i.i.i669
                                        #   in Loop: Header=BB0_187 Depth=1
	movq	40(%rbx), %rsi
	movq	40(%r13), %rdi
	callq	memcmp
	testl	%eax, %eax
	jne	.LBB0_207
.LBB0_206:                              # %_ZNSt11char_traitsIcE7compareEPKcS2_m.exit.thread.i.i.i.i.i673
                                        #   in Loop: Header=BB0_187 Depth=1
	cmpq	$-2147483647, %r14              # imm = 0x80000001
	movq	$-2147483648, %rax              # imm = 0x80000000
	cmovlq	%rax, %r14
	cmpq	$2147483647, %r14               # imm = 0x7FFFFFFF
	movl	$2147483647, %eax               # imm = 0x7FFFFFFF
	cmovgeq	%rax, %r14
	movl	%r14d, %eax
.LBB0_207:                              # %_ZNKSt4lessISt17basic_string_viewIcSt11char_traitsIcEEEclERKS3_S6_.exit.i.i675
                                        #   in Loop: Header=BB0_187 Depth=1
	shrl	$31, %eax
.LBB0_208:                              #   in Loop: Header=BB0_187 Depth=1
	movzbl	%al, %edi
	movq	%r13, %rsi
	movq	%rbx, %rdx
	leaq	656(%rsp), %rcx
	callq	_ZSt29_Rb_tree_insert_and_rebalancebPSt18_Rb_tree_node_baseS0_RS_
	incq	688(%rsp)
	jmp	.LBB0_186
.LBB0_209:                              # %_ZN8argparse8Argument4helpENSt7__cxx1112basic_stringIcSt11char_traitsIcESaIcEEE.exit152
	leaq	248(%rsp), %r14
	movq	%r14, 232(%rsp)
	movabsq	$8583980072668652907, %rax      # imm = 0x77206C656E72656B
	movq	%rax, 248(%rsp)
	movl	$1752458345, 256(%rsp)          # imm = 0x68746469
	movq	$12, 240(%rsp)
	movb	$0, 260(%rsp)
	movq	56(%r15), %rcx
	movq	%rax, (%rcx)
	movl	$1752458345, 8(%rcx)            # imm = 0x68746469
	movq	240(%rsp), %rax
	movq	%rax, 64(%r15)
	movq	56(%r15), %rcx
	movb	$0, (%rcx,%rax)
	movq	232(%rsp), %rax
	movq	$0, 240(%rsp)
	movb	$0, (%rax)
	movq	64(%rsp), %rbx                  # 8-byte Reload
	addq	$256, %rbx                      # imm = 0x100
	movq	$_ZNSt17_Function_handlerIFSt3anyRKNSt7__cxx1112basic_stringIcSt11char_traitsIcESaIcEEEEN8argparse7details12parse_numberIiLi0EEEE9_M_invokeERKSt9_Any_dataS8_, 24(%rsp)
	movq	$_ZNSt14_Function_base13_Base_managerIN8argparse7details12parse_numberIiLi0EEEE10_M_managerERSt9_Any_dataRKS6_St18_Manager_operation, 16(%rsp)
	movb	$0, 32(%rsp)
	movzbl	288(%r15), %eax
	testq	%rax, %rax
	je	.LBB0_212
# %bb.210:
	cmpb	$-1, %al
	movq	$-1, %rcx
	cmovneq	%rax, %rcx
.Ltmp142:
	leaq	80(%rsp), %rdi
	movq	%rbx, %rsi
	callq	*_ZNSt8__detail9__variant12__gen_vtableILb1ENS0_16__variant_cookieEOZNS0_16_Variant_storageILb0EJSt8functionIFSt3anyRKNSt7__cxx1112basic_stringIcSt11char_traitsIcESaIcEEEEES4_IFvSD_EEEE13_M_reset_implEvEUlOT_E_JRSt7variantIJSF_SH_EEEE9_S_vtableE(,%rcx,8)
.Ltmp143:
# %bb.211:                              # %.noexc686
	movb	$0, 288(%r15)
	movaps	(%rsp), %xmm0
	movaps	%xmm0, 80(%rsp)
	movups	(%rbx), %xmm1
	movaps	%xmm1, (%rsp)
	movups	%xmm0, (%rbx)
	movq	280(%r15), %rax
	movaps	16(%rsp), %xmm0
	movq	$0, 16(%rsp)
	movq	%rax, 24(%rsp)
	movups	%xmm0, 272(%r15)
	jmp	.LBB0_214
.LBB0_212:
	movq	$0, 16(%rsp)
	movups	(%rbx), %xmm0
	movaps	%xmm0, 80(%rsp)
	movq	272(%r15), %rax
	movq	%rax, 96(%rsp)
	movq	$_ZNSt14_Function_base13_Base_managerIN8argparse7details12parse_numberIiLi0EEEE10_M_managerERSt9_Any_dataRKS6_St18_Manager_operation, 272(%r15)
	movq	280(%r15), %rcx
	movq	%rcx, 104(%rsp)
	movq	$_ZNSt17_Function_handlerIFSt3anyRKNSt7__cxx1112basic_stringIcSt11char_traitsIcESaIcEEEEN8argparse7details12parse_numberIiLi0EEEE9_M_invokeERKSt9_Any_dataS8_, 280(%r15)
	testq	%rax, %rax
	je	.LBB0_214
# %bb.213:
.Ltmp145:
	leaq	80(%rsp), %rdi
	movq	%rdi, %rsi
	movl	$3, %edx
	callq	*%rax
.Ltmp146:
.LBB0_214:                              # %_ZNSt7variantIJSt8functionIFSt3anyRKNSt7__cxx1112basic_stringIcSt11char_traitsIcESaIcEEEEES0_IFvS9_EEEEaSEOSE_.exit.i460
	movzbl	32(%rsp), %eax
	cmpq	$255, %rax
	movq	$-1, %rcx
	cmovneq	%rax, %rcx
.Ltmp148:
	leaq	80(%rsp), %rdi
	movq	%rsp, %rsi
	callq	*_ZNSt8__detail9__variant12__gen_vtableILb1ENS0_16__variant_cookieEOZNS0_16_Variant_storageILb0EJSt8functionIFSt3anyRKNSt7__cxx1112basic_stringIcSt11char_traitsIcESaIcEEEEES4_IFvSD_EEEE13_M_reset_implEvEUlOT_E_JRSt7variantIJSF_SH_EEEE9_S_vtableE(,%rcx,8)
.Ltmp149:
# %bb.215:                              # %_ZNSt8__detail9__variant16_Variant_storageILb0EJSt8functionIFSt3anyRKNSt7__cxx1112basic_stringIcSt11char_traitsIcESaIcEEEEES2_IFvSB_EEEED2Ev.exit.i462
	cmpb	$0, 288(%r15)
	jne	.LBB0_365
# %bb.216:                              # %_ZN8argparse8Argument4scanILc105EiEENSt9enable_ifIXsr3stdE15is_arithmetic_vIT0_EERS0_E4typeEv.exit154
	movq	232(%rsp), %rdi
	cmpq	%r14, %rdi
	je	.LBB0_218
# %bb.217:
	callq	_ZdlPv
.LBB0_218:                              # %_ZNSt7__cxx1112basic_stringIcSt11char_traitsIcESaIcEED2Ev.exit155
	movq	$12, (%rsp)
	movq	$.L.str.12, 8(%rsp)
.Ltmp154:
	movl	$360, %edi                      # imm = 0x168
	callq	_Znwm
.Ltmp155:
# %bb.219:                              # %.noexc164
	movq	%rax, %rbx
	movq	%rax, %r15
	leaq	16(%rax), %rdi
	movq	528(%rsp), %rdx
	movq	536(%rsp), %rsi
.Ltmp156:
	movq	%rsp, %rcx
	callq	_ZN8argparse8ArgumentC2ILm1EJLm0EEEESt17basic_string_viewIcSt11char_traitsIcEEOSt5arrayIS5_XT_EESt16integer_sequenceImJXspT0_EEE
.Ltmp157:
# %bb.220:                              # %_ZNSt7__cxx114listIN8argparse8ArgumentESaIS2_EE7emplaceIJRNS_12basic_stringIcSt11char_traitsIcESaIcEEESt5arrayISt17basic_string_viewIcS8_ELm1EEEEESt14_List_iteratorIS2_ESt20_List_const_iteratorIS2_EDpOT_.exit.i158
	movq	%rbx, 64(%rsp)                  # 8-byte Spill
	movq	%r15, %rdi
	leaq	624(%rsp), %rsi
	callq	_ZNSt8__detail15_List_node_base7_M_hookEPS0_
	incq	640(%rsp)
	testb	$2, 336(%r15)
	jne	.LBB0_223
# %bb.221:
	leaq	600(%rsp), %rdi
	movq	(%r15), %rdx
	cmpq	%rdi, %rdx
	je	.LBB0_223
# %bb.222:
	movq	%r15, %rsi
	callq	_ZNSt8__detail15_List_node_base11_M_transferEPS0_S1_
	incq	616(%rsp)
	decq	640(%rsp)
.LBB0_223:                              # %_ZNSt7__cxx114listIN8argparse8ArgumentESaIS2_EE6spliceESt20_List_const_iteratorIS2_ERS4_S6_.exit.i160
	movq	16(%r15), %rax
	movq	24(%r15), %rcx
	movq	%rcx, 56(%rsp)                  # 8-byte Spill
	cmpq	%rcx, %rax
	je	.LBB0_249
# %bb.224:                              # %.lr.ph.i.i161
	movq	%r15, 40(%rsp)                  # 8-byte Spill
	jmp	.LBB0_227
	.p2align	4, 0x90
.LBB0_225:                              #   in Loop: Header=BB0_227 Depth=1
	movq	%r13, %rdi
	callq	_ZdlPv
.LBB0_226:                              # %.noexc167
                                        #   in Loop: Header=BB0_227 Depth=1
	movq	48(%rsp), %rax                  # 8-byte Reload
	addq	$32, %rax
	cmpq	56(%rsp), %rax                  # 8-byte Folded Reload
	je	.LBB0_249
.LBB0_227:                              # =>This Loop Header: Depth=1
                                        #     Child Loop BB0_231 Depth 2
	movq	(%rax), %rbx
	movq	%rax, 48(%rsp)                  # 8-byte Spill
	movq	8(%rax), %rbp
	movq	664(%rsp), %rax
	leaq	656(%rsp), %rcx
	testq	%rax, %rax
	je	.LBB0_239
# %bb.228:                              # %.lr.ph.i.i.i.i469.preheader
                                        #   in Loop: Header=BB0_227 Depth=1
	leaq	656(%rsp), %r12
	jmp	.LBB0_231
	.p2align	4, 0x90
.LBB0_229:                              # %_ZNSt11char_traitsIcE7compareEPKcS2_m.exit.thread.i.i.i.i.i.i.i480
                                        #   in Loop: Header=BB0_231 Depth=2
	cmpq	$-2147483647, %r12              # imm = 0x80000001
	movq	$-2147483648, %rax              # imm = 0x80000000
	cmovlq	%rax, %r12
	cmpq	$2147483647, %r12               # imm = 0x7FFFFFFF
	movl	$2147483647, %eax               # imm = 0x7FFFFFFF
	cmovgeq	%rax, %r12
	movl	%r12d, %r14d
.LBB0_230:                              # %_ZNKSt4lessISt17basic_string_viewIcSt11char_traitsIcEEEclERKS3_S6_.exit.i.i.i.i486
                                        #   in Loop: Header=BB0_231 Depth=2
	testl	%r14d, %r14d
	movq	%r15, %r12
	cmovsq	%r13, %r12
	movl	%r14d, %eax
	shrl	$31, %eax
	movq	16(%r15,%rax,8), %rax
	testq	%rax, %rax
	je	.LBB0_233
.LBB0_231:                              # %.lr.ph.i.i.i.i469
                                        #   Parent Loop BB0_227 Depth=1
                                        # =>  This Inner Loop Header: Depth=2
	movq	%r12, %r13
	movq	%rax, %r15
	movq	32(%rax), %rdx
	movq	%rdx, %r12
	subq	%rbp, %r12
	cmovaeq	%rbp, %rdx
	testq	%rdx, %rdx
	je	.LBB0_229
# %bb.232:                              # %_ZNSt11char_traitsIcE7compareEPKcS2_m.exit.i.i.i.i.i.i.i476
                                        #   in Loop: Header=BB0_231 Depth=2
	movq	40(%r15), %rdi
	movq	%rbx, %rsi
	callq	memcmp
	movl	%eax, %r14d
	testl	%eax, %eax
	jne	.LBB0_230
	jmp	.LBB0_229
	.p2align	4, 0x90
.LBB0_233:                              # %_ZNSt3mapISt17basic_string_viewIcSt11char_traitsIcEESt14_List_iteratorIN8argparse8ArgumentEESt4lessIS3_ESaISt4pairIKS3_S7_EEE11lower_boundERSB_.exit.i487
                                        #   in Loop: Header=BB0_227 Depth=1
	leaq	656(%rsp), %rax
	movq	%rax, %rcx
	cmpq	%rax, %r12
	je	.LBB0_239
# %bb.234:                              #   in Loop: Header=BB0_227 Depth=1
	testl	%r14d, %r14d
	movq	%r15, %rax
	cmovsq	%r13, %rax
	movq	32(%rax), %rdx
	movq	%rbp, %rcx
	subq	%rdx, %rcx
	cmovbq	%rbp, %rdx
	testq	%rdx, %rdx
	je	.LBB0_238
# %bb.235:                              # %_ZNSt11char_traitsIcE7compareEPKcS2_m.exit.i.i.i.i492
                                        #   in Loop: Header=BB0_227 Depth=1
	testl	%r14d, %r14d
	movq	%r15, %rax
	cmovsq	%r13, %rax
	movq	40(%rax), %rsi
	movq	%rbx, %rdi
	movq	%rcx, 72(%rsp)                  # 8-byte Spill
	callq	memcmp
	movq	72(%rsp), %rcx                  # 8-byte Reload
	testl	%eax, %eax
	je	.LBB0_238
# %bb.236:                              # %_ZNKSt4lessISt17basic_string_viewIcSt11char_traitsIcEEEclERKS3_S6_.exit.i498
                                        #   in Loop: Header=BB0_227 Depth=1
	movq	%r12, %rcx
	testl	%eax, %eax
	js	.LBB0_239
.LBB0_237:                              #   in Loop: Header=BB0_227 Depth=1
	testl	%r14d, %r14d
	cmovsq	%r13, %r15
	movq	40(%rsp), %rax                  # 8-byte Reload
	movq	%rax, 48(%r15)
	movq	%rax, %r15
	jmp	.LBB0_226
	.p2align	4, 0x90
.LBB0_238:                              # %_ZNSt11char_traitsIcE7compareEPKcS2_m.exit.thread.i.i.i.i496
                                        #   in Loop: Header=BB0_227 Depth=1
	cmpq	$-2147483647, %rcx              # imm = 0x80000001
	movq	$-2147483648, %rax              # imm = 0x80000000
	cmovlq	%rax, %rcx
	cmpq	$2147483647, %rcx               # imm = 0x7FFFFFFF
	movl	$2147483647, %eax               # imm = 0x7FFFFFFF
	cmovgeq	%rax, %rcx
	movl	%ecx, %eax
	movq	%r12, %rcx
	testl	%eax, %eax
	jns	.LBB0_237
	.p2align	4, 0x90
.LBB0_239:                              # %.critedge.i500
                                        #   in Loop: Header=BB0_227 Depth=1
.Ltmp159:
	movq	%rcx, %r12
	movl	$56, %edi
	callq	_Znwm
.Ltmp160:
# %bb.240:                              # %.noexc707
                                        #   in Loop: Header=BB0_227 Depth=1
	movq	%rax, %r13
	movq	%rax, %r14
	addq	$32, %r14
	movq	%rbp, 32(%rax)
	movq	%rbx, 40(%rax)
	movq	40(%rsp), %r15                  # 8-byte Reload
	movq	%r15, 48(%rax)
.Ltmp162:
	leaq	648(%rsp), %rdi
	movq	%r12, %rsi
	movq	%r14, %rdx
	callq	_ZNSt8_Rb_treeISt17basic_string_viewIcSt11char_traitsIcEESt4pairIKS3_St14_List_iteratorIN8argparse8ArgumentEEESt10_Select1stISA_ESt4lessIS3_ESaISA_EE29_M_get_insert_hint_unique_posESt23_Rb_tree_const_iteratorISA_ERS5_
.Ltmp163:
# %bb.241:                              #   in Loop: Header=BB0_227 Depth=1
	movq	%rdx, %rbx
	testq	%rdx, %rdx
	je	.LBB0_225
# %bb.242:                              #   in Loop: Header=BB0_227 Depth=1
	movq	%rax, %rcx
	movb	$1, %al
	testq	%rcx, %rcx
	jne	.LBB0_248
# %bb.243:                              #   in Loop: Header=BB0_227 Depth=1
	leaq	656(%rsp), %rcx
	cmpq	%rbx, %rcx
	je	.LBB0_248
# %bb.244:                              #   in Loop: Header=BB0_227 Depth=1
	movq	(%r14), %rax
	movq	32(%rbx), %rdx
	movq	%rax, %r14
	subq	%rdx, %r14
	cmovbq	%rax, %rdx
	testq	%rdx, %rdx
	je	.LBB0_246
# %bb.245:                              # %_ZNSt11char_traitsIcE7compareEPKcS2_m.exit.i.i.i.i.i699
                                        #   in Loop: Header=BB0_227 Depth=1
	movq	40(%rbx), %rsi
	movq	40(%r13), %rdi
	callq	memcmp
	testl	%eax, %eax
	jne	.LBB0_247
.LBB0_246:                              # %_ZNSt11char_traitsIcE7compareEPKcS2_m.exit.thread.i.i.i.i.i703
                                        #   in Loop: Header=BB0_227 Depth=1
	cmpq	$-2147483647, %r14              # imm = 0x80000001
	movq	$-2147483648, %rax              # imm = 0x80000000
	cmovlq	%rax, %r14
	cmpq	$2147483647, %r14               # imm = 0x7FFFFFFF
	movl	$2147483647, %eax               # imm = 0x7FFFFFFF
	cmovgeq	%rax, %r14
	movl	%r14d, %eax
.LBB0_247:                              # %_ZNKSt4lessISt17basic_string_viewIcSt11char_traitsIcEEEclERKS3_S6_.exit.i.i705
                                        #   in Loop: Header=BB0_227 Depth=1
	shrl	$31, %eax
.LBB0_248:                              #   in Loop: Header=BB0_227 Depth=1
	movzbl	%al, %edi
	movq	%r13, %rsi
	movq	%rbx, %rdx
	leaq	656(%rsp), %rcx
	callq	_ZSt29_Rb_tree_insert_and_rebalancebPSt18_Rb_tree_node_baseS0_RS_
	incq	688(%rsp)
	jmp	.LBB0_226
.LBB0_249:                              # %_ZN8argparse8Argument4helpENSt7__cxx1112basic_stringIcSt11char_traitsIcESaIcEEE.exit179
	leaq	216(%rsp), %r14
	movq	%r14, 200(%rsp)
	movabsq	$7953753191868560751, %rax      # imm = 0x6E6168632074756F
	movq	%rax, 216(%rsp)
	movl	$1936483694, 224(%rsp)          # imm = 0x736C656E
	movq	$12, 208(%rsp)
	movb	$0, 228(%rsp)
	movq	56(%r15), %rcx
	movq	%rax, (%rcx)
	movl	$1936483694, 8(%rcx)            # imm = 0x736C656E
	movq	208(%rsp), %rax
	movq	%rax, 64(%r15)
	movq	56(%r15), %rcx
	movb	$0, (%rcx,%rax)
	movq	200(%rsp), %rax
	movq	$0, 208(%rsp)
	movb	$0, (%rax)
	movq	64(%rsp), %rbx                  # 8-byte Reload
	addq	$256, %rbx                      # imm = 0x100
	movq	$_ZNSt17_Function_handlerIFSt3anyRKNSt7__cxx1112basic_stringIcSt11char_traitsIcESaIcEEEEN8argparse7details12parse_numberIiLi0EEEE9_M_invokeERKSt9_Any_dataS8_, 24(%rsp)
	movq	$_ZNSt14_Function_base13_Base_managerIN8argparse7details12parse_numberIiLi0EEEE10_M_managerERSt9_Any_dataRKS6_St18_Manager_operation, 16(%rsp)
	movb	$0, 32(%rsp)
	movzbl	288(%r15), %eax
	testq	%rax, %rax
	je	.LBB0_252
# %bb.250:
	cmpb	$-1, %al
	movq	$-1, %rcx
	cmovneq	%rax, %rcx
.Ltmp171:
	leaq	80(%rsp), %rdi
	movq	%rbx, %rsi
	callq	*_ZNSt8__detail9__variant12__gen_vtableILb1ENS0_16__variant_cookieEOZNS0_16_Variant_storageILb0EJSt8functionIFSt3anyRKNSt7__cxx1112basic_stringIcSt11char_traitsIcESaIcEEEEES4_IFvSD_EEEE13_M_reset_implEvEUlOT_E_JRSt7variantIJSF_SH_EEEE9_S_vtableE(,%rcx,8)
.Ltmp172:
# %bb.251:                              # %.noexc716
	movb	$0, 288(%r15)
	movaps	(%rsp), %xmm0
	movaps	%xmm0, 80(%rsp)
	movups	(%rbx), %xmm1
	movaps	%xmm1, (%rsp)
	movups	%xmm0, (%rbx)
	movq	280(%r15), %rax
	movaps	16(%rsp), %xmm0
	movq	$0, 16(%rsp)
	movq	%rax, 24(%rsp)
	movups	%xmm0, 272(%r15)
	jmp	.LBB0_254
.LBB0_252:
	movq	$0, 16(%rsp)
	movups	(%rbx), %xmm0
	movaps	%xmm0, 80(%rsp)
	movq	272(%r15), %rax
	movq	%rax, 96(%rsp)
	movq	$_ZNSt14_Function_base13_Base_managerIN8argparse7details12parse_numberIiLi0EEEE10_M_managerERSt9_Any_dataRKS6_St18_Manager_operation, 272(%r15)
	movq	280(%r15), %rcx
	movq	%rcx, 104(%rsp)
	movq	$_ZNSt17_Function_handlerIFSt3anyRKNSt7__cxx1112basic_stringIcSt11char_traitsIcESaIcEEEEN8argparse7details12parse_numberIiLi0EEEE9_M_invokeERKSt9_Any_dataS8_, 280(%r15)
	testq	%rax, %rax
	je	.LBB0_254
# %bb.253:
.Ltmp174:
	leaq	80(%rsp), %rdi
	movq	%rdi, %rsi
	movl	$3, %edx
	callq	*%rax
.Ltmp175:
.LBB0_254:                              # %_ZNSt7variantIJSt8functionIFSt3anyRKNSt7__cxx1112basic_stringIcSt11char_traitsIcESaIcEEEEES0_IFvS9_EEEEaSEOSE_.exit.i508
	movzbl	32(%rsp), %eax
	cmpq	$255, %rax
	movq	$-1, %rcx
	cmovneq	%rax, %rcx
.Ltmp177:
	leaq	80(%rsp), %rdi
	movq	%rsp, %rsi
	callq	*_ZNSt8__detail9__variant12__gen_vtableILb1ENS0_16__variant_cookieEOZNS0_16_Variant_storageILb0EJSt8functionIFSt3anyRKNSt7__cxx1112basic_stringIcSt11char_traitsIcESaIcEEEEES4_IFvSD_EEEE13_M_reset_implEvEUlOT_E_JRSt7variantIJSF_SH_EEEE9_S_vtableE(,%rcx,8)
.Ltmp178:
# %bb.255:                              # %_ZNSt8__detail9__variant16_Variant_storageILb0EJSt8functionIFSt3anyRKNSt7__cxx1112basic_stringIcSt11char_traitsIcESaIcEEEEES2_IFvSB_EEEED2Ev.exit.i510
	cmpb	$0, 288(%r15)
	jne	.LBB0_367
# %bb.256:                              # %_ZN8argparse8Argument4scanILc105EiEENSt9enable_ifIXsr3stdE15is_arithmetic_vIT0_EERS0_E4typeEv.exit181
	movq	200(%rsp), %rdi
	cmpq	%r14, %rdi
	je	.LBB0_258
# %bb.257:
	callq	_ZdlPv
.LBB0_258:                              # %_ZNSt7__cxx1112basic_stringIcSt11char_traitsIcESaIcEED2Ev.exit182
	movq	$8, (%rsp)
	movq	$.L.str.14, 8(%rsp)
.Ltmp183:
	movl	$360, %edi                      # imm = 0x168
	callq	_Znwm
.Ltmp184:
# %bb.259:                              # %.noexc191
	movq	%rax, %r12
	leaq	16(%rax), %rbx
	movq	528(%rsp), %rdx
	movq	536(%rsp), %rsi
.Ltmp185:
	movq	%rsp, %rcx
	movq	%rbx, %rdi
	callq	_ZN8argparse8ArgumentC2ILm1EJLm0EEEESt17basic_string_viewIcSt11char_traitsIcEEOSt5arrayIS5_XT_EESt16integer_sequenceImJXspT0_EEE
.Ltmp186:
# %bb.260:                              # %_ZNSt7__cxx114listIN8argparse8ArgumentESaIS2_EE7emplaceIJRNS_12basic_stringIcSt11char_traitsIcESaIcEEESt5arrayISt17basic_string_viewIcS8_ELm1EEEEESt14_List_iteratorIS2_ESt20_List_const_iteratorIS2_EDpOT_.exit.i185
	movq	%rbx, 64(%rsp)                  # 8-byte Spill
	movq	%r12, %rdi
	leaq	624(%rsp), %rsi
	callq	_ZNSt8__detail15_List_node_base7_M_hookEPS0_
	incq	640(%rsp)
	testb	$2, 336(%r12)
	jne	.LBB0_263
# %bb.261:
	leaq	600(%rsp), %rdi
	movq	(%r12), %rdx
	cmpq	%rdi, %rdx
	je	.LBB0_263
# %bb.262:
	movq	%r12, %rsi
	callq	_ZNSt8__detail15_List_node_base11_M_transferEPS0_S1_
	incq	616(%rsp)
	decq	640(%rsp)
.LBB0_263:                              # %_ZNSt7__cxx114listIN8argparse8ArgumentESaIS2_EE6spliceESt20_List_const_iteratorIS2_ERS4_S6_.exit.i187
	movq	16(%r12), %r15
	movq	24(%r12), %rax
	movq	%rax, 56(%rsp)                  # 8-byte Spill
	cmpq	%rax, %r15
	je	.LBB0_289
# %bb.264:                              # %.lr.ph.i.i188
	movq	%r12, 40(%rsp)                  # 8-byte Spill
	jmp	.LBB0_267
	.p2align	4, 0x90
.LBB0_265:                              #   in Loop: Header=BB0_267 Depth=1
	movq	%r13, %rdi
	callq	_ZdlPv
.LBB0_266:                              # %.noexc194
                                        #   in Loop: Header=BB0_267 Depth=1
	addq	$32, %r15
	cmpq	56(%rsp), %r15                  # 8-byte Folded Reload
	je	.LBB0_289
.LBB0_267:                              # =>This Loop Header: Depth=1
                                        #     Child Loop BB0_271 Depth 2
	movq	(%r15), %rbx
	movq	%r15, 48(%rsp)                  # 8-byte Spill
	movq	8(%r15), %r15
	movq	664(%rsp), %rax
	leaq	656(%rsp), %rcx
	testq	%rax, %rax
	je	.LBB0_279
# %bb.268:                              # %.lr.ph.i.i.i.i517.preheader
                                        #   in Loop: Header=BB0_267 Depth=1
	leaq	656(%rsp), %r12
	jmp	.LBB0_271
	.p2align	4, 0x90
.LBB0_269:                              # %_ZNSt11char_traitsIcE7compareEPKcS2_m.exit.thread.i.i.i.i.i.i.i528
                                        #   in Loop: Header=BB0_271 Depth=2
	cmpq	$-2147483647, %r12              # imm = 0x80000001
	movq	$-2147483648, %rax              # imm = 0x80000000
	cmovlq	%rax, %r12
	cmpq	$2147483647, %r12               # imm = 0x7FFFFFFF
	movl	$2147483647, %eax               # imm = 0x7FFFFFFF
	cmovgeq	%rax, %r12
	movl	%r12d, %r14d
.LBB0_270:                              # %_ZNKSt4lessISt17basic_string_viewIcSt11char_traitsIcEEEclERKS3_S6_.exit.i.i.i.i534
                                        #   in Loop: Header=BB0_271 Depth=2
	testl	%r14d, %r14d
	movq	%rbp, %r12
	cmovsq	%r13, %r12
	movl	%r14d, %eax
	shrl	$31, %eax
	movq	16(%rbp,%rax,8), %rax
	testq	%rax, %rax
	je	.LBB0_273
.LBB0_271:                              # %.lr.ph.i.i.i.i517
                                        #   Parent Loop BB0_267 Depth=1
                                        # =>  This Inner Loop Header: Depth=2
	movq	%r12, %r13
	movq	%rax, %rbp
	movq	32(%rax), %rdx
	movq	%rdx, %r12
	subq	%r15, %r12
	cmovaeq	%r15, %rdx
	testq	%rdx, %rdx
	je	.LBB0_269
# %bb.272:                              # %_ZNSt11char_traitsIcE7compareEPKcS2_m.exit.i.i.i.i.i.i.i524
                                        #   in Loop: Header=BB0_271 Depth=2
	movq	40(%rbp), %rdi
	movq	%rbx, %rsi
	callq	memcmp
	movl	%eax, %r14d
	testl	%eax, %eax
	jne	.LBB0_270
	jmp	.LBB0_269
	.p2align	4, 0x90
.LBB0_273:                              # %_ZNSt3mapISt17basic_string_viewIcSt11char_traitsIcEESt14_List_iteratorIN8argparse8ArgumentEESt4lessIS3_ESaISt4pairIKS3_S7_EEE11lower_boundERSB_.exit.i535
                                        #   in Loop: Header=BB0_267 Depth=1
	leaq	656(%rsp), %rax
	movq	%rax, %rcx
	cmpq	%rax, %r12
	je	.LBB0_279
# %bb.274:                              #   in Loop: Header=BB0_267 Depth=1
	testl	%r14d, %r14d
	movq	%rbp, %rax
	cmovsq	%r13, %rax
	movq	32(%rax), %rdx
	movq	%r15, %rcx
	subq	%rdx, %rcx
	cmovbq	%r15, %rdx
	testq	%rdx, %rdx
	je	.LBB0_278
# %bb.275:                              # %_ZNSt11char_traitsIcE7compareEPKcS2_m.exit.i.i.i.i540
                                        #   in Loop: Header=BB0_267 Depth=1
	testl	%r14d, %r14d
	movq	%rbp, %rax
	cmovsq	%r13, %rax
	movq	40(%rax), %rsi
	movq	%rbx, %rdi
	movq	%rcx, 72(%rsp)                  # 8-byte Spill
	callq	memcmp
	movq	72(%rsp), %rcx                  # 8-byte Reload
	testl	%eax, %eax
	je	.LBB0_278
# %bb.276:                              # %_ZNKSt4lessISt17basic_string_viewIcSt11char_traitsIcEEEclERKS3_S6_.exit.i546
                                        #   in Loop: Header=BB0_267 Depth=1
	movq	%r12, %rcx
	testl	%eax, %eax
	js	.LBB0_279
.LBB0_277:                              #   in Loop: Header=BB0_267 Depth=1
	testl	%r14d, %r14d
	cmovsq	%r13, %rbp
	movq	40(%rsp), %r12                  # 8-byte Reload
	movq	%r12, 48(%rbp)
	movq	48(%rsp), %r15                  # 8-byte Reload
	jmp	.LBB0_266
	.p2align	4, 0x90
.LBB0_278:                              # %_ZNSt11char_traitsIcE7compareEPKcS2_m.exit.thread.i.i.i.i544
                                        #   in Loop: Header=BB0_267 Depth=1
	cmpq	$-2147483647, %rcx              # imm = 0x80000001
	movq	$-2147483648, %rax              # imm = 0x80000000
	cmovlq	%rax, %rcx
	cmpq	$2147483647, %rcx               # imm = 0x7FFFFFFF
	movl	$2147483647, %eax               # imm = 0x7FFFFFFF
	cmovgeq	%rax, %rcx
	movl	%ecx, %eax
	movq	%r12, %rcx
	testl	%eax, %eax
	jns	.LBB0_277
	.p2align	4, 0x90
.LBB0_279:                              # %.critedge.i548
                                        #   in Loop: Header=BB0_267 Depth=1
.Ltmp188:
	movq	%rcx, %rbp
	movl	$56, %edi
	callq	_Znwm
.Ltmp189:
# %bb.280:                              # %.noexc737
                                        #   in Loop: Header=BB0_267 Depth=1
	movq	%rax, %r13
	movq	%rax, %r14
	addq	$32, %r14
	movq	%r15, 32(%rax)
	movq	%rbx, 40(%rax)
	movq	40(%rsp), %r12                  # 8-byte Reload
	movq	%r12, 48(%rax)
.Ltmp191:
	leaq	648(%rsp), %rdi
	movq	%rbp, %rsi
	movq	%r14, %rdx
	callq	_ZNSt8_Rb_treeISt17basic_string_viewIcSt11char_traitsIcEESt4pairIKS3_St14_List_iteratorIN8argparse8ArgumentEEESt10_Select1stISA_ESt4lessIS3_ESaISA_EE29_M_get_insert_hint_unique_posESt23_Rb_tree_const_iteratorISA_ERS5_
.Ltmp192:
# %bb.281:                              #   in Loop: Header=BB0_267 Depth=1
	movq	%rdx, %rbx
	testq	%rdx, %rdx
	movq	48(%rsp), %r15                  # 8-byte Reload
	je	.LBB0_265
# %bb.282:                              #   in Loop: Header=BB0_267 Depth=1
	movq	%rax, %rcx
	movb	$1, %al
	testq	%rcx, %rcx
	jne	.LBB0_288
# %bb.283:                              #   in Loop: Header=BB0_267 Depth=1
	leaq	656(%rsp), %rcx
	cmpq	%rbx, %rcx
	je	.LBB0_288
# %bb.284:                              #   in Loop: Header=BB0_267 Depth=1
	movq	(%r14), %rax
	movq	32(%rbx), %rdx
	movq	%rax, %r14
	subq	%rdx, %r14
	cmovbq	%rax, %rdx
	testq	%rdx, %rdx
	je	.LBB0_286
# %bb.285:                              # %_ZNSt11char_traitsIcE7compareEPKcS2_m.exit.i.i.i.i.i729
                                        #   in Loop: Header=BB0_267 Depth=1
	movq	40(%rbx), %rsi
	movq	40(%r13), %rdi
	callq	memcmp
	testl	%eax, %eax
	jne	.LBB0_287
.LBB0_286:                              # %_ZNSt11char_traitsIcE7compareEPKcS2_m.exit.thread.i.i.i.i.i733
                                        #   in Loop: Header=BB0_267 Depth=1
	cmpq	$-2147483647, %r14              # imm = 0x80000001
	movq	$-2147483648, %rax              # imm = 0x80000000
	cmovlq	%rax, %r14
	cmpq	$2147483647, %r14               # imm = 0x7FFFFFFF
	movl	$2147483647, %eax               # imm = 0x7FFFFFFF
	cmovgeq	%rax, %r14
	movl	%r14d, %eax
.LBB0_287:                              # %_ZNKSt4lessISt17basic_string_viewIcSt11char_traitsIcEEEclERKS3_S6_.exit.i.i735
                                        #   in Loop: Header=BB0_267 Depth=1
	shrl	$31, %eax
.LBB0_288:                              #   in Loop: Header=BB0_267 Depth=1
	movzbl	%al, %edi
	movq	%r13, %rsi
	movq	%rbx, %rdx
	leaq	656(%rsp), %rcx
	callq	_ZSt29_Rb_tree_insert_and_rebalancebPSt18_Rb_tree_node_baseS0_RS_
	incq	688(%rsp)
	jmp	.LBB0_266
.LBB0_289:                              # %_ZN8argparse14ArgumentParser12add_argumentIJPKcEEERNS_8ArgumentEDpT_.exit195
	leaq	176(%rsp), %r15
	movq	%r15, 160(%rsp)
	movq	$36, (%rsp)
.Ltmp200:
	leaq	160(%rsp), %rdi
	movq	%rsp, %rsi
	xorl	%edx, %edx
	callq	_ZNSt7__cxx1112basic_stringIcSt11char_traitsIcESaIcEE9_M_createERmm
.Ltmp201:
# %bb.290:                              # %.noexc198
	movq	%rax, 160(%rsp)
	movq	(%rsp), %rcx
	movq	%rcx, 176(%rsp)
	movups	.L.str.15+16(%rip), %xmm0
	movups	%xmm0, 16(%rax)
	movups	.L.str.15(%rip), %xmm0
	movups	%xmm0, (%rax)
	movl	$692265004, 32(%rax)            # imm = 0x2943202C
	movq	%rcx, 168(%rsp)
	movb	$0, (%rax,%rcx)
	movq	160(%rsp), %rcx
	cmpq	%r15, %rcx
	movq	64(%rsp), %rbx                  # 8-byte Reload
	je	.LBB0_294
# %bb.291:
	leaq	72(%r12), %rdx
	movq	56(%r12), %rax
	cmpq	%rdx, %rax
	je	.LBB0_297
# %bb.292:
	movq	72(%r12), %rdx
	movq	%rcx, 56(%r12)
	movups	168(%rsp), %xmm0
	movups	%xmm0, 64(%r12)
	testq	%rax, %rax
	je	.LBB0_298
# %bb.293:
	movq	%rax, 160(%rsp)
	movq	%rdx, 176(%rsp)
	jmp	.LBB0_301
.LBB0_294:
	movq	168(%rsp), %rdx
	testq	%rdx, %rdx
	je	.LBB0_300
# %bb.295:
	movq	56(%r12), %rdi
	cmpq	$1, %rdx
	jne	.LBB0_299
# %bb.296:
	movzbl	176(%rsp), %eax
	movb	%al, (%rdi)
	jmp	.LBB0_300
.LBB0_297:                              # %.thread.i.i204
	movq	%rcx, 56(%r12)
	movups	168(%rsp), %xmm0
	movups	%xmm0, 64(%r12)
.LBB0_298:
	movq	%r15, 160(%rsp)
	movq	%r15, %rax
	jmp	.LBB0_301
.LBB0_299:
	movq	%r15, %rsi
	callq	memcpy@PLT
.LBB0_300:                              # %_ZNSt7__cxx1112basic_stringIcSt11char_traitsIcESaIcEE7_S_copyEPcPKcm.exit.i.i203
	movq	168(%rsp), %rax
	movq	%rax, 64(%r12)
	movq	56(%r12), %rcx
	movb	$0, (%rcx,%rax)
	movq	160(%rsp), %rax
.LBB0_301:                              # %_ZN8argparse8Argument4helpENSt7__cxx1112basic_stringIcSt11char_traitsIcESaIcEEE.exit206
	movq	$0, 168(%rsp)
	movb	$0, (%rax)
	movb	$0, (%rsp)
.Ltmp203:
	movq	%rsp, %rsi
	movq	%rbx, %rdi
	callq	_ZN8argparse8Argument13default_valueIbEERS0_OT_
.Ltmp204:
# %bb.302:
	movq	$_ZNSt3any17_Manager_internalIbE9_S_manageENS_3_OpEPKS_PNS_4_ArgE, (%rsp)
	movq	$0, 8(%rsp)
	movb	$1, 8(%rsp)
	movq	%r12, %rbx
	addq	$208, %rbx
	movq	208(%r12), %rax
	testq	%rax, %rax
	je	.LBB0_305
# %bb.303:
.Ltmp206:
	movl	$3, %edi
	movq	%rbx, %rsi
	xorl	%edx, %edx
	callq	*%rax
.Ltmp207:
# %bb.304:
	movq	$0, (%rbx)
	movq	(%rsp), %rcx
	jmp	.LBB0_306
.LBB0_305:
	movl	$_ZNSt3any17_Manager_internalIbE9_S_manageENS_3_OpEPKS_PNS_4_ArgE, %ecx
.LBB0_306:                              # %_ZNSt3any5resetEv.exit7.i.i.i
	movq	%rbx, 80(%rsp)
.Ltmp209:
	movq	%rsp, %rsi
	leaq	80(%rsp), %rdx
	movl	$4, %edi
	callq	*%rcx
.Ltmp210:
# %bb.307:
	movq	(%rsp), %rax
	xorps	%xmm0, %xmm0
	movups	%xmm0, 320(%r12)
	testq	%rax, %rax
	je	.LBB0_309
# %bb.308:
.Ltmp212:
	movq	%rsp, %rsi
	movl	$3, %edi
	xorl	%edx, %edx
	callq	*%rax
.Ltmp213:
.LBB0_309:
	movq	160(%rsp), %rdi
	cmpq	%r15, %rdi
	je	.LBB0_311
# %bb.310:
	callq	_ZdlPv
.LBB0_311:                              # %_ZNSt7__cxx1112basic_stringIcSt11char_traitsIcESaIcEED2Ev.exit208
	movabsq	$2305843009213693944, %r14      # imm = 0x1FFFFFFFFFFFFFF8
	movl	196(%rsp), %eax                 # 4-byte Reload
	movslq	%eax, %rbx
	leaq	(,%rbx,8), %rcx
	movq	%rcx, 48(%rsp)                  # 8-byte Spill
	cmpq	%r14, %rcx
	ja	.LBB0_369
# %bb.312:                              # %_ZNSt6vectorINSt7__cxx1112basic_stringIcSt11char_traitsIcESaIcEEESaIS5_EE17_S_check_init_lenEmRKS6_.exit.i.i.i
	testl	%eax, %eax
	je	.LBB0_324
# %bb.313:                              # %_ZNSt16allocator_traitsISaINSt7__cxx1112basic_stringIcSt11char_traitsIcESaIcEEEEE8allocateERS6_m.exit.i.i.i.i
	movq	%rbx, %rdi
	shlq	$5, %rdi
.Ltmp215:
	callq	_Znwm
.Ltmp216:
# %bb.314:                              # %.lr.ph.i.preheader
	addq	$7, %r14
	andq	%r14, %rbx
	movq	%rax, (%rsp)
	shlq	$5, %rbx
	addq	%rax, %rbx
	movq	%rbx, 16(%rsp)
	xorl	%r15d, %r15d
	xorl	%ebx, %ebx
	movq	%rax, 56(%rsp)                  # 8-byte Spill
	movq	%rax, %r12
	jmp	.LBB0_317
	.p2align	4, 0x90
.LBB0_315:                              #   in Loop: Header=BB0_317 Depth=1
	movzbl	(%r14), %eax
	movb	%al, (%r13)
.LBB0_316:                              #   in Loop: Header=BB0_317 Depth=1
	movq	80(%rsp), %rax
	movq	%rax, 8(%r12)
	movq	(%r12), %rcx
	movb	$0, (%rcx,%rax)
	addq	$32, %r12
	addq	$-32, %rbx
	addq	$8, %r15
	cmpq	%r15, 48(%rsp)                  # 8-byte Folded Reload
	je	.LBB0_325
.LBB0_317:                              # %.lr.ph.i
                                        # =>This Inner Loop Header: Depth=1
	movq	880(%rsp), %rax                 # 8-byte Reload
	movq	(%rax,%r15), %r14
	leaq	16(%r12), %r13
	movq	%r13, (%r12)
	testq	%r14, %r14
	je	.LBB0_355
# %bb.318:                              #   in Loop: Header=BB0_317 Depth=1
	movq	%r14, %rdi
	callq	strlen
	movq	%rax, %rbp
	movq	%rax, 80(%rsp)
	cmpq	$16, %rax
	jb	.LBB0_321
# %bb.319:                              # %.noexc8.i.i.i
                                        #   in Loop: Header=BB0_317 Depth=1
.Ltmp217:
	movq	%r12, %rdi
	leaq	80(%rsp), %rsi
	xorl	%edx, %edx
	callq	_ZNSt7__cxx1112basic_stringIcSt11char_traitsIcESaIcEE9_M_createERmm
.Ltmp218:
# %bb.320:                              # %.noexc13.i
                                        #   in Loop: Header=BB0_317 Depth=1
	movq	%rax, %r13
	movq	%rax, (%r12)
	movq	80(%rsp), %rax
	movq	%rax, 16(%r12)
.LBB0_321:                              # %._crit_edge.i.i.i.i.i.i
                                        #   in Loop: Header=BB0_317 Depth=1
	testq	%rbp, %rbp
	je	.LBB0_316
# %bb.322:                              # %._crit_edge.i.i.i.i.i.i
                                        #   in Loop: Header=BB0_317 Depth=1
	cmpq	$1, %rbp
	je	.LBB0_315
# %bb.323:                              #   in Loop: Header=BB0_317 Depth=1
	movq	%r13, %rdi
	movq	%r14, %rsi
	movq	%rbp, %rdx
	callq	memcpy@PLT
	jmp	.LBB0_316
.LBB0_324:                              # %_ZNSt12_Vector_baseINSt7__cxx1112basic_stringIcSt11char_traitsIcESaIcEEESaIS5_EE11_M_allocateEm.exit.i.i.i.thread
	movq	$0, (%rsp)
	shlq	$5, %rbx
	movq	%rbx, 16(%rsp)
	xorl	%r12d, %r12d
.LBB0_325:                              # %_ZNSt20__uninitialized_copyILb0EE13__uninit_copyIPKPKcPNSt7__cxx1112basic_stringIcSt11char_traitsIcESaIcEEEEET0_T_SE_SD_.exit
	movq	%r12, 8(%rsp)
.Ltmp229:
	leaq	392(%rsp), %rdi
	movq	%rsp, %rsi
	callq	_ZN8argparse14ArgumentParser10parse_argsERKSt6vectorINSt7__cxx1112basic_stringIcSt11char_traitsIcESaIcEEESaIS7_EE
.Ltmp230:
# %bb.326:
	movq	(%rsp), %rbx
	movq	8(%rsp), %r14
	cmpq	%r14, %rbx
	jne	.LBB0_352
# %bb.327:                              # %_ZSt8_DestroyIPNSt7__cxx1112basic_stringIcSt11char_traitsIcESaIcEEES5_EvT_S7_RSaIT0_E.exit.i.i
	testq	%rbx, %rbx
	je	.LBB0_329
.LBB0_328:
	movq	%rbx, %rdi
	callq	_ZdlPv
.LBB0_329:
	movq	120(%rsp), %rax                 # 8-byte Reload
	movl	$1, (%rax)
	cmpb	$0, 592(%rsp)
	je	.LBB0_371
# %bb.330:
.Ltmp232:
	leaq	392(%rsp), %rdi
	movl	$11, %esi
	movl	$.L.str.2, %edx
	callq	_ZNK8argparse14ArgumentParserixESt17basic_string_viewIcSt11char_traitsIcEE
.Ltmp233:
# %bb.331:                              # %.noexc227
.Ltmp234:
	movq	%rax, %rdi
	callq	_ZNK8argparse8Argument3getIiEET_v
.Ltmp235:
# %bb.332:                              # %_ZNK8argparse14ArgumentParser3getIiEET_St17basic_string_viewIcSt11char_traitsIcEE.exit
	movq	120(%rsp), %rcx                 # 8-byte Reload
	movl	%eax, 4(%rcx)
	cmpb	$0, 592(%rsp)
	je	.LBB0_372
# %bb.333:
.Ltmp236:
	leaq	392(%rsp), %rdi
	movl	$9, %esi
	movl	$.L.str.4, %edx
	callq	_ZNK8argparse14ArgumentParserixESt17basic_string_viewIcSt11char_traitsIcEE
.Ltmp237:
# %bb.334:                              # %.noexc233
.Ltmp238:
	movq	%rax, %rdi
	callq	_ZNK8argparse8Argument3getIiEET_v
.Ltmp239:
# %bb.335:                              # %_ZNK8argparse14ArgumentParser3getIiEET_St17basic_string_viewIcSt11char_traitsIcEE.exit235
	movq	120(%rsp), %rcx                 # 8-byte Reload
	movl	%eax, 8(%rcx)
	cmpb	$0, 592(%rsp)
	je	.LBB0_373
# %bb.336:
.Ltmp240:
	leaq	392(%rsp), %rdi
	movl	$8, %esi
	movl	$.L.str.6, %edx
	callq	_ZNK8argparse14ArgumentParserixESt17basic_string_viewIcSt11char_traitsIcEE
.Ltmp241:
# %bb.337:                              # %.noexc240
.Ltmp242:
	movq	%rax, %rdi
	callq	_ZNK8argparse8Argument3getIiEET_v
.Ltmp243:
# %bb.338:                              # %_ZNK8argparse14ArgumentParser3getIiEET_St17basic_string_viewIcSt11char_traitsIcEE.exit242
	movq	120(%rsp), %rcx                 # 8-byte Reload
	movl	%eax, 12(%rcx)
	cmpb	$0, 592(%rsp)
	je	.LBB0_374
# %bb.339:
.Ltmp244:
	leaq	392(%rsp), %rdi
	movl	$13, %esi
	movl	$.L.str.8, %edx
	callq	_ZNK8argparse14ArgumentParserixESt17basic_string_viewIcSt11char_traitsIcEE
.Ltmp245:
# %bb.340:                              # %.noexc247
.Ltmp246:
	movq	%rax, %rdi
	callq	_ZNK8argparse8Argument3getIiEET_v
.Ltmp247:
# %bb.341:                              # %_ZNK8argparse14ArgumentParser3getIiEET_St17basic_string_viewIcSt11char_traitsIcEE.exit249
	movq	120(%rsp), %rcx                 # 8-byte Reload
	movl	%eax, 16(%rcx)
	cmpb	$0, 592(%rsp)
	je	.LBB0_375
# %bb.342:
.Ltmp248:
	leaq	392(%rsp), %rdi
	movl	$12, %esi
	movl	$.L.str.10, %edx
	callq	_ZNK8argparse14ArgumentParserixESt17basic_string_viewIcSt11char_traitsIcEE
.Ltmp249:
# %bb.343:                              # %.noexc254
.Ltmp250:
	movq	%rax, %rdi
	callq	_ZNK8argparse8Argument3getIiEET_v
.Ltmp251:
# %bb.344:                              # %_ZNK8argparse14ArgumentParser3getIiEET_St17basic_string_viewIcSt11char_traitsIcEE.exit256
	movq	120(%rsp), %rcx                 # 8-byte Reload
	movl	%eax, 20(%rcx)
	cmpb	$0, 592(%rsp)
	je	.LBB0_376
# %bb.345:
.Ltmp252:
	leaq	392(%rsp), %rdi
	movl	$12, %esi
	movl	$.L.str.12, %edx
	callq	_ZNK8argparse14ArgumentParserixESt17basic_string_viewIcSt11char_traitsIcEE
.Ltmp253:
# %bb.346:                              # %.noexc261
.Ltmp254:
	movq	%rax, %rdi
	callq	_ZNK8argparse8Argument3getIiEET_v
.Ltmp255:
# %bb.347:                              # %_ZNK8argparse14ArgumentParser3getIiEET_St17basic_string_viewIcSt11char_traitsIcEE.exit263
	movq	120(%rsp), %rcx                 # 8-byte Reload
	movl	%eax, 24(%rcx)
	cmpb	$0, 592(%rsp)
	je	.LBB0_377
# %bb.348:
.Ltmp256:
	leaq	392(%rsp), %rdi
	movl	$8, %esi
	movl	$.L.str.14, %edx
	callq	_ZNK8argparse14ArgumentParserixESt17basic_string_viewIcSt11char_traitsIcEE
.Ltmp257:
# %bb.349:                              # %.noexc268
.Ltmp258:
	movq	%rax, %rdi
	callq	_ZNK8argparse8Argument3getIbEET_v
.Ltmp259:
# %bb.350:                              # %_ZNK8argparse14ArgumentParser3getIbEET_St17basic_string_viewIcSt11char_traitsIcEE.exit
	movq	120(%rsp), %rbx                 # 8-byte Reload
	movb	%al, 28(%rbx)
	leaq	392(%rsp), %rdi
	callq	_ZN8argparse14ArgumentParserD2Ev
	movq	%rbx, %rax
	addq	$920, %rsp                      # imm = 0x398
	.cfi_def_cfa_offset 56
	popq	%rbx
	.cfi_def_cfa_offset 48
	popq	%r12
	.cfi_def_cfa_offset 40
	popq	%r13
	.cfi_def_cfa_offset 32
	popq	%r14
	.cfi_def_cfa_offset 24
	popq	%r15
	.cfi_def_cfa_offset 16
	popq	%rbp
	.cfi_def_cfa_offset 8
	retq
	.p2align	4, 0x90
.LBB0_351:                              # %_ZSt8_DestroyINSt7__cxx1112basic_stringIcSt11char_traitsIcESaIcEEEEvPT_.exit.i.i.i.i.i
                                        #   in Loop: Header=BB0_352 Depth=1
	.cfi_def_cfa_offset 976
	addq	$16, %rbx
	cmpq	%r14, %rbx
	je	.LBB0_354
.LBB0_352:                              # %.lr.ph.i.i.i.i.i
                                        # =>This Inner Loop Header: Depth=1
	movq	(%rbx), %rdi
	addq	$16, %rbx
	cmpq	%rbx, %rdi
	je	.LBB0_351
# %bb.353:                              #   in Loop: Header=BB0_352 Depth=1
	callq	_ZdlPv
	jmp	.LBB0_351
.LBB0_354:                              # %_ZSt8_DestroyIPNSt7__cxx1112basic_stringIcSt11char_traitsIcESaIcEEES5_EvT_S7_RSaIT0_E.exitthread-pre-split.i.i
	movq	(%rsp), %rbx
	testq	%rbx, %rbx
	jne	.LBB0_328
	jmp	.LBB0_329
.LBB0_355:                              # %.noexc.i.i.i
.Ltmp220:
	movl	$.L.str.33, %edi
	callq	_ZSt19__throw_logic_errorPKc
.Ltmp221:
# %bb.356:                              # %.noexc.i
.LBB0_357:
	movl	$16, %edi
	callq	__cxa_allocate_exception
	movq	$_ZTVSt18bad_variant_access+16, (%rax)
	movq	$.L.str.40, 8(%rax)
.Ltmp35:
	movl	$_ZTISt18bad_variant_access, %esi
	movl	$_ZNSt9exceptionD2Ev, %edx
	movq	%rax, %rdi
	callq	__cxa_throw
.Ltmp36:
# %bb.358:                              # %.noexc272
.LBB0_359:
	movl	$16, %edi
	callq	__cxa_allocate_exception
	movq	$_ZTVSt18bad_variant_access+16, (%rax)
	movq	$.L.str.40, 8(%rax)
.Ltmp64:
	movl	$_ZTISt18bad_variant_access, %esi
	movl	$_ZNSt9exceptionD2Ev, %edx
	movq	%rax, %rdi
	callq	__cxa_throw
.Ltmp65:
# %bb.360:                              # %.noexc319
.LBB0_361:
	movl	$16, %edi
	callq	__cxa_allocate_exception
	movq	$_ZTVSt18bad_variant_access+16, (%rax)
	movq	$.L.str.40, 8(%rax)
.Ltmp93:
	movl	$_ZTISt18bad_variant_access, %esi
	movl	$_ZNSt9exceptionD2Ev, %edx
	movq	%rax, %rdi
	callq	__cxa_throw
.Ltmp94:
# %bb.362:                              # %.noexc367
.LBB0_363:
	movl	$16, %edi
	callq	__cxa_allocate_exception
	movq	$_ZTVSt18bad_variant_access+16, (%rax)
	movq	$.L.str.40, 8(%rax)
.Ltmp122:
	movl	$_ZTISt18bad_variant_access, %esi
	movl	$_ZNSt9exceptionD2Ev, %edx
	movq	%rax, %rdi
	callq	__cxa_throw
.Ltmp123:
# %bb.364:                              # %.noexc415
.LBB0_365:
	movl	$16, %edi
	callq	__cxa_allocate_exception
	movq	$_ZTVSt18bad_variant_access+16, (%rax)
	movq	$.L.str.40, 8(%rax)
.Ltmp151:
	movl	$_ZTISt18bad_variant_access, %esi
	movl	$_ZNSt9exceptionD2Ev, %edx
	movq	%rax, %rdi
	callq	__cxa_throw
.Ltmp152:
# %bb.366:                              # %.noexc463
.LBB0_367:
	movl	$16, %edi
	callq	__cxa_allocate_exception
	movq	$_ZTVSt18bad_variant_access+16, (%rax)
	movq	$.L.str.40, 8(%rax)
.Ltmp180:
	movl	$_ZTISt18bad_variant_access, %esi
	movl	$_ZNSt9exceptionD2Ev, %edx
	movq	%rax, %rdi
	callq	__cxa_throw
.Ltmp181:
# %bb.368:                              # %.noexc511
.LBB0_369:                              # %.noexc.i.i
.Ltmp284:
	movl	$.L.str.59, %edi
	callq	_ZSt20__throw_length_errorPKc
.Ltmp285:
# %bb.370:                              # %.noexc209
.LBB0_371:
	movl	$16, %edi
	callq	__cxa_allocate_exception
	movq	%rax, %r14
.Ltmp278:
	movl	$.L.str.113, %esi
	movq	%rax, %rdi
	callq	_ZNSt11logic_errorC1EPKc
.Ltmp279:
	jmp	.LBB0_378
.LBB0_372:
	movl	$16, %edi
	callq	__cxa_allocate_exception
	movq	%rax, %r14
.Ltmp275:
	movl	$.L.str.113, %esi
	movq	%rax, %rdi
	callq	_ZNSt11logic_errorC1EPKc
.Ltmp276:
	jmp	.LBB0_378
.LBB0_373:
	movl	$16, %edi
	callq	__cxa_allocate_exception
	movq	%rax, %r14
.Ltmp272:
	movl	$.L.str.113, %esi
	movq	%rax, %rdi
	callq	_ZNSt11logic_errorC1EPKc
.Ltmp273:
	jmp	.LBB0_378
.LBB0_374:
	movl	$16, %edi
	callq	__cxa_allocate_exception
	movq	%rax, %r14
.Ltmp269:
	movl	$.L.str.113, %esi
	movq	%rax, %rdi
	callq	_ZNSt11logic_errorC1EPKc
.Ltmp270:
	jmp	.LBB0_378
.LBB0_375:
	movl	$16, %edi
	callq	__cxa_allocate_exception
	movq	%rax, %r14
.Ltmp266:
	movl	$.L.str.113, %esi
	movq	%rax, %rdi
	callq	_ZNSt11logic_errorC1EPKc
.Ltmp267:
	jmp	.LBB0_378
.LBB0_376:
	movl	$16, %edi
	callq	__cxa_allocate_exception
	movq	%rax, %r14
.Ltmp263:
	movl	$.L.str.113, %esi
	movq	%rax, %rdi
	callq	_ZNSt11logic_errorC1EPKc
.Ltmp264:
	jmp	.LBB0_378
.LBB0_377:
	movl	$16, %edi
	callq	__cxa_allocate_exception
	movq	%rax, %r14
.Ltmp260:
	movl	$.L.str.113, %esi
	movq	%rax, %rdi
	callq	_ZNSt11logic_errorC1EPKc
.Ltmp261:
.LBB0_378:                              # %.invoke
.Ltmp281:
	movl	$_ZTISt11logic_error, %esi
	movl	$_ZNSt11logic_errorD1Ev, %edx
	movq	%r14, %rdi
	callq	__cxa_throw
.Ltmp282:
# %bb.379:                              # %.cont
.LBB0_380:
.Ltmp176:
	movq	%rax, %rdi
	callq	__clang_call_terminate
.LBB0_381:
.Ltmp147:
	movq	%rax, %rdi
	callq	__clang_call_terminate
.LBB0_382:
.Ltmp118:
	movq	%rax, %rdi
	callq	__clang_call_terminate
.LBB0_383:
.Ltmp89:
	movq	%rax, %rdi
	callq	__clang_call_terminate
.LBB0_384:
.Ltmp60:
	movq	%rax, %rdi
	callq	__clang_call_terminate
.LBB0_385:
.Ltmp31:
	movq	%rax, %rdi
	callq	__clang_call_terminate
.LBB0_386:
.Ltmp262:
	jmp	.LBB0_393
.LBB0_387:
.Ltmp265:
	jmp	.LBB0_393
.LBB0_388:
.Ltmp268:
	jmp	.LBB0_393
.LBB0_389:
.Ltmp271:
	jmp	.LBB0_393
.LBB0_390:
.Ltmp274:
	jmp	.LBB0_393
.LBB0_391:
.Ltmp277:
	jmp	.LBB0_393
.LBB0_392:
.Ltmp280:
.LBB0_393:                              # %.body
	movq	%rax, %rbx
	movq	%r14, %rdi
	callq	__cxa_free_exception
	jmp	.LBB0_494
.LBB0_394:
.Ltmp214:
	movq	%rax, %rdi
	callq	__clang_call_terminate
.LBB0_395:
.Ltmp208:
	movq	%rax, %rdi
	callq	__clang_call_terminate
.LBB0_396:
.Ltmp173:
	movq	%rax, %rdi
	callq	__clang_call_terminate
.LBB0_397:
.Ltmp144:
	movq	%rax, %rdi
	callq	__clang_call_terminate
.LBB0_398:
.Ltmp115:
	movq	%rax, %rdi
	callq	__clang_call_terminate
.LBB0_399:
.Ltmp86:
	movq	%rax, %rdi
	callq	__clang_call_terminate
.LBB0_400:
.Ltmp57:
	movq	%rax, %rdi
	callq	__clang_call_terminate
.LBB0_401:
.Ltmp28:
	movq	%rax, %rdi
	callq	__clang_call_terminate
.LBB0_402:
.Ltmp231:
	movq	%rdx, %r14
	movq	%rax, %rbx
	movq	%rsp, %rdi
	callq	_ZNSt6vectorINSt7__cxx1112basic_stringIcSt11char_traitsIcESaIcEEESaIS5_EED2Ev
	jmp	.LBB0_488
.LBB0_403:
.Ltmp211:
	movq	%rax, %rdi
	callq	__clang_call_terminate
.LBB0_404:
.Ltmp205:
	movq	%rax, %rbx
	movq	160(%rsp), %rdi
	cmpq	%r15, %rdi
	jne	.LBB0_430
	jmp	.LBB0_494
.LBB0_406:
.Ltmp202:
	movq	%rax, %rbx
	jmp	.LBB0_494
.LBB0_407:                              # %_ZNSt15__allocated_ptrISaISt10_List_nodeIN8argparse8ArgumentEEEED2Ev.exit10.i.i.i183
.Ltmp187:
	jmp	.LBB0_434
.LBB0_408:
.Ltmp182:
	movq	%rax, %rbx
	movq	200(%rsp), %rdi
	cmpq	%r14, %rdi
	jne	.LBB0_430
	jmp	.LBB0_494
.LBB0_410:
.Ltmp179:
	movq	%rax, %rdi
	callq	__clang_call_terminate
.LBB0_411:                              # %_ZNSt15__allocated_ptrISaISt10_List_nodeIN8argparse8ArgumentEEEED2Ev.exit10.i.i.i156
.Ltmp158:
	jmp	.LBB0_428
.LBB0_412:
.Ltmp153:
	movq	%rax, %rbx
	movq	232(%rsp), %rdi
	cmpq	%r14, %rdi
	jne	.LBB0_430
	jmp	.LBB0_494
.LBB0_414:
.Ltmp150:
	movq	%rax, %rdi
	callq	__clang_call_terminate
.LBB0_415:                              # %_ZNSt15__allocated_ptrISaISt10_List_nodeIN8argparse8ArgumentEEEED2Ev.exit10.i.i.i129
.Ltmp129:
	jmp	.LBB0_428
.LBB0_416:
.Ltmp124:
	movq	%rax, %rbx
	movq	264(%rsp), %rdi
	cmpq	%r14, %rdi
	jne	.LBB0_430
	jmp	.LBB0_494
.LBB0_418:
.Ltmp121:
	movq	%rax, %rdi
	callq	__clang_call_terminate
.LBB0_419:                              # %_ZNSt15__allocated_ptrISaISt10_List_nodeIN8argparse8ArgumentEEEED2Ev.exit10.i.i.i102
.Ltmp100:
	jmp	.LBB0_428
.LBB0_420:
.Ltmp95:
	movq	%rax, %rbx
	movq	296(%rsp), %rdi
	cmpq	%r14, %rdi
	jne	.LBB0_430
	jmp	.LBB0_494
.LBB0_422:
.Ltmp92:
	movq	%rax, %rdi
	callq	__clang_call_terminate
.LBB0_423:                              # %_ZNSt15__allocated_ptrISaISt10_List_nodeIN8argparse8ArgumentEEEED2Ev.exit10.i.i.i75
.Ltmp71:
	jmp	.LBB0_428
.LBB0_424:
.Ltmp66:
	movq	%rax, %rbx
	movq	328(%rsp), %rdi
	cmpq	%r14, %rdi
	jne	.LBB0_430
	jmp	.LBB0_494
.LBB0_426:
.Ltmp63:
	movq	%rax, %rdi
	callq	__clang_call_terminate
.LBB0_427:                              # %_ZNSt15__allocated_ptrISaISt10_List_nodeIN8argparse8ArgumentEEEED2Ev.exit10.i.i.i48
.Ltmp42:
.LBB0_428:                              # %.body
	movq	%rax, %rbx
	movq	%r15, %rdi
	callq	_ZdlPv
	jmp	.LBB0_494
.LBB0_429:
.Ltmp37:
	movq	%rax, %rbx
	movq	128(%rsp), %rdi
	cmpq	%r15, %rdi
	je	.LBB0_494
.LBB0_430:
	callq	_ZdlPv
	jmp	.LBB0_494
.LBB0_431:
.Ltmp34:
	movq	%rax, %rdi
	callq	__clang_call_terminate
.LBB0_432:
.Ltmp25:
	movq	%rax, %rbx
	jmp	.LBB0_494
.LBB0_433:                              # %_ZNSt15__allocated_ptrISaISt10_List_nodeIN8argparse8ArgumentEEEED2Ev.exit10.i.i.i
.Ltmp10:
.LBB0_434:                              # %.body
	movq	%rax, %rbx
	movq	%r12, %rdi
	callq	_ZdlPv
	jmp	.LBB0_494
.LBB0_435:
.Ltmp5:
	movq	%rax, %rbx
	movq	888(%rsp), %rdi
	cmpq	%r15, %rdi
	je	.LBB0_437
# %bb.436:
	callq	_ZdlPv
.LBB0_437:                              # %_ZNSt7__cxx1112basic_stringIcSt11char_traitsIcESaIcEED2Ev.exit213
	movq	360(%rsp), %rdi
	cmpq	%r14, %rdi
	je	.LBB0_495
# %bb.438:
	callq	_ZdlPv
	movq	%rbx, %rdi
	callq	_Unwind_Resume@PLT
.LBB0_439:
.Ltmp2:
	movq	%rax, %rdi
	callq	_Unwind_Resume@PLT
.LBB0_440:
.Ltmp286:
	movq	%rdx, %r14
	movq	%rax, %rbx
	jmp	.LBB0_488
.LBB0_441:                              # %.loopexit.i
.Ltmp219:
	jmp	.LBB0_478
.LBB0_442:
.Ltmp193:
	movq	%rax, %rdi
	callq	__cxa_begin_catch
	movq	%r13, %rdi
	callq	_ZdlPv
.Ltmp194:
	callq	__cxa_rethrow
.Ltmp195:
# %bb.443:
.LBB0_444:
.Ltmp196:
	movq	%rax, %rbx
.Ltmp197:
	callq	__cxa_end_catch
.Ltmp198:
	jmp	.LBB0_494
.LBB0_445:
.Ltmp199:
	movq	%rax, %rdi
	callq	__clang_call_terminate
.LBB0_446:                              # %.loopexit
.Ltmp190:
	movq	%rax, %rbx
	jmp	.LBB0_494
.LBB0_447:
.Ltmp164:
	movq	%rax, %rdi
	callq	__cxa_begin_catch
	movq	%r13, %rdi
	callq	_ZdlPv
.Ltmp165:
	callq	__cxa_rethrow
.Ltmp166:
# %bb.448:
.LBB0_449:
.Ltmp167:
	movq	%rax, %rbx
.Ltmp168:
	callq	__cxa_end_catch
.Ltmp169:
	jmp	.LBB0_494
.LBB0_450:
.Ltmp170:
	movq	%rax, %rdi
	callq	__clang_call_terminate
.LBB0_451:                              # %.loopexit.split-lp.loopexit
.Ltmp161:
	movq	%rax, %rbx
	jmp	.LBB0_494
.LBB0_452:
.Ltmp135:
	movq	%rax, %rdi
	callq	__cxa_begin_catch
	movq	%r13, %rdi
	callq	_ZdlPv
.Ltmp136:
	callq	__cxa_rethrow
.Ltmp137:
# %bb.453:
.LBB0_454:
.Ltmp138:
	movq	%rax, %rbx
.Ltmp139:
	callq	__cxa_end_catch
.Ltmp140:
	jmp	.LBB0_494
.LBB0_455:
.Ltmp141:
	movq	%rax, %rdi
	callq	__clang_call_terminate
.LBB0_456:                              # %.loopexit.split-lp.loopexit.split-lp.loopexit
.Ltmp132:
	movq	%rax, %rbx
	jmp	.LBB0_494
.LBB0_457:
.Ltmp106:
	movq	%rax, %rdi
	callq	__cxa_begin_catch
	movq	%r13, %rdi
	callq	_ZdlPv
.Ltmp107:
	callq	__cxa_rethrow
.Ltmp108:
# %bb.458:
.LBB0_459:
.Ltmp109:
	movq	%rax, %rbx
.Ltmp110:
	callq	__cxa_end_catch
.Ltmp111:
	jmp	.LBB0_494
.LBB0_460:
.Ltmp112:
	movq	%rax, %rdi
	callq	__clang_call_terminate
.LBB0_461:                              # %.loopexit.split-lp.loopexit.split-lp.loopexit.split-lp.loopexit
.Ltmp103:
	movq	%rax, %rbx
	jmp	.LBB0_494
.LBB0_462:
.Ltmp77:
	movq	%rax, %rdi
	callq	__cxa_begin_catch
	movq	%r13, %rdi
	callq	_ZdlPv
.Ltmp78:
	callq	__cxa_rethrow
.Ltmp79:
# %bb.463:
.LBB0_464:
.Ltmp80:
	movq	%rax, %rbx
.Ltmp81:
	callq	__cxa_end_catch
.Ltmp82:
	jmp	.LBB0_494
.LBB0_465:
.Ltmp83:
	movq	%rax, %rdi
	callq	__clang_call_terminate
.LBB0_466:                              # %.loopexit.split-lp.loopexit.split-lp.loopexit.split-lp.loopexit.split-lp.loopexit
.Ltmp74:
	movq	%rax, %rbx
	jmp	.LBB0_494
.LBB0_467:
.Ltmp48:
	movq	%rax, %rdi
	callq	__cxa_begin_catch
	movq	%r13, %rdi
	callq	_ZdlPv
.Ltmp49:
	callq	__cxa_rethrow
.Ltmp50:
# %bb.468:
.LBB0_469:
.Ltmp51:
	movq	%rax, %rbx
.Ltmp52:
	callq	__cxa_end_catch
.Ltmp53:
	jmp	.LBB0_494
.LBB0_470:
.Ltmp54:
	movq	%rax, %rdi
	callq	__clang_call_terminate
.LBB0_471:                              # %.loopexit.split-lp.loopexit.split-lp.loopexit.split-lp.loopexit.split-lp.loopexit.split-lp.loopexit
.Ltmp45:
	movq	%rax, %rbx
	jmp	.LBB0_494
.LBB0_472:
.Ltmp16:
	movq	%rax, %rdi
	callq	__cxa_begin_catch
	movq	%r13, %rdi
	callq	_ZdlPv
.Ltmp17:
	callq	__cxa_rethrow
.Ltmp18:
# %bb.473:
.LBB0_474:
.Ltmp19:
	movq	%rax, %rbx
.Ltmp20:
	callq	__cxa_end_catch
.Ltmp21:
	jmp	.LBB0_494
.LBB0_475:
.Ltmp22:
	movq	%rax, %rdi
	callq	__clang_call_terminate
.LBB0_476:                              # %.loopexit.split-lp.loopexit.split-lp.loopexit.split-lp.loopexit.split-lp.loopexit.split-lp.loopexit.split-lp.loopexit
.Ltmp13:
	movq	%rax, %rbx
	jmp	.LBB0_494
.LBB0_477:                              # %.loopexit.split-lp.i
.Ltmp222:
.LBB0_478:
	movq	%rax, %rdi
	callq	__cxa_begin_catch
	testq	%rbx, %rbx
	jne	.LBB0_481
.LBB0_479:                              # %_ZSt8_DestroyIPNSt7__cxx1112basic_stringIcSt11char_traitsIcESaIcEEEEvT_S7_.exit.i
.Ltmp223:
	callq	__cxa_rethrow
.Ltmp224:
# %bb.480:
.LBB0_481:                              # %.lr.ph.i.i.i.preheader
	movq	56(%rsp), %rbx                  # 8-byte Reload
	jmp	.LBB0_483
	.p2align	4, 0x90
.LBB0_482:                              # %_ZSt8_DestroyINSt7__cxx1112basic_stringIcSt11char_traitsIcESaIcEEEEvPT_.exit.i.i.i
                                        #   in Loop: Header=BB0_483 Depth=1
	addq	$16, %rbx
	cmpq	%rbx, %r12
	je	.LBB0_479
.LBB0_483:                              # %.lr.ph.i.i.i
                                        # =>This Inner Loop Header: Depth=1
	movq	(%rbx), %rdi
	addq	$16, %rbx
	cmpq	%rbx, %rdi
	je	.LBB0_482
# %bb.484:                              #   in Loop: Header=BB0_483 Depth=1
	callq	_ZdlPv
	jmp	.LBB0_482
.LBB0_485:                              # %.loopexit.split-lp.loopexit.split-lp.loopexit.split-lp.loopexit.split-lp.loopexit.split-lp.loopexit.split-lp.loopexit.split-lp
.Ltmp283:
	movq	%rax, %rbx
	jmp	.LBB0_494
.LBB0_486:
.Ltmp225:
	movq	%rdx, %r14
	movq	%rax, %rbx
.Ltmp226:
	callq	__cxa_end_catch
.Ltmp227:
# %bb.487:                              # %.body557
	movq	56(%rsp), %rdi                  # 8-byte Reload
	callq	_ZdlPv
.LBB0_488:                              # %.body211
	cmpl	$2, %r14d
	jne	.LBB0_494
# %bb.489:
	movq	%rbx, %rdi
	callq	__cxa_begin_catch
	movq	(%rax), %rcx
	movq	%rax, %rdi
	callq	*16(%rcx)
.Ltmp287:
	movl	$_ZSt4cerr, %edi
	movq	%rax, %rsi
	callq	_ZStlsISt11char_traitsIcEERSt13basic_ostreamIcT_ES5_PKc
.Ltmp288:
# %bb.490:
.Ltmp289:
	movq	%rax, %rdi
	callq	_ZSt4endlIcSt11char_traitsIcEERSt13basic_ostreamIT_T0_ES6_
.Ltmp290:
# %bb.491:                              # %_ZNSolsEPFRSoS_E.exit
.Ltmp291:
	leaq	392(%rsp), %rsi
	movl	$_ZSt4cerr, %edi
	callq	_ZN8argparselsERSoRKNS_14ArgumentParserE
.Ltmp292:
# %bb.492:
	movl	$1, %edi
	callq	exit
.LBB0_493:
.Ltmp293:
	movq	%rax, %rbx
.Ltmp294:
	callq	__cxa_end_catch
.Ltmp295:
.LBB0_494:
	leaq	392(%rsp), %rdi
	callq	_ZN8argparse14ArgumentParserD2Ev
.LBB0_495:
	movq	%rbx, %rdi
	callq	_Unwind_Resume@PLT
.LBB0_496:
.Ltmp296:
	movq	%rax, %rdi
	callq	__clang_call_terminate
.LBB0_497:
.Ltmp228:
	movq	%rax, %rdi
	callq	__clang_call_terminate
.Lfunc_end0:
	.size	_Z12parse_inputsiPPc, .Lfunc_end0-_Z12parse_inputsiPPc
	.cfi_endproc
	.section	.gcc_except_table,"a",@progbits
	.p2align	2, 0x0
GCC_except_table0:
.Lexception0:
	.byte	255                             # @LPStart Encoding = omit
	.byte	3                               # @TType Encoding = udata4
	.uleb128 .Lttbase0-.Lttbaseref0
.Lttbaseref0:
	.byte	1                               # Call site Encoding = uleb128
	.uleb128 .Lcst_end0-.Lcst_begin0
.Lcst_begin0:
	.uleb128 .Ltmp0-.Lfunc_begin0           # >> Call Site 1 <<
	.uleb128 .Ltmp1-.Ltmp0                  #   Call between .Ltmp0 and .Ltmp1
	.uleb128 .Ltmp2-.Lfunc_begin0           #     jumps to .Ltmp2
	.byte	0                               #   On action: cleanup
	.uleb128 .Ltmp3-.Lfunc_begin0           # >> Call Site 2 <<
	.uleb128 .Ltmp4-.Ltmp3                  #   Call between .Ltmp3 and .Ltmp4
	.uleb128 .Ltmp5-.Lfunc_begin0           #     jumps to .Ltmp5
	.byte	0                               #   On action: cleanup
	.uleb128 .Ltmp6-.Lfunc_begin0           # >> Call Site 3 <<
	.uleb128 .Ltmp7-.Ltmp6                  #   Call between .Ltmp6 and .Ltmp7
	.uleb128 .Ltmp283-.Lfunc_begin0         #     jumps to .Ltmp283
	.byte	0                               #   On action: cleanup
	.uleb128 .Ltmp8-.Lfunc_begin0           # >> Call Site 4 <<
	.uleb128 .Ltmp9-.Ltmp8                  #   Call between .Ltmp8 and .Ltmp9
	.uleb128 .Ltmp10-.Lfunc_begin0          #     jumps to .Ltmp10
	.byte	0                               #   On action: cleanup
	.uleb128 .Ltmp11-.Lfunc_begin0          # >> Call Site 5 <<
	.uleb128 .Ltmp12-.Ltmp11                #   Call between .Ltmp11 and .Ltmp12
	.uleb128 .Ltmp13-.Lfunc_begin0          #     jumps to .Ltmp13
	.byte	0                               #   On action: cleanup
	.uleb128 .Ltmp14-.Lfunc_begin0          # >> Call Site 6 <<
	.uleb128 .Ltmp15-.Ltmp14                #   Call between .Ltmp14 and .Ltmp15
	.uleb128 .Ltmp16-.Lfunc_begin0          #     jumps to .Ltmp16
	.byte	5                               #   On action: 3
	.uleb128 .Ltmp23-.Lfunc_begin0          # >> Call Site 7 <<
	.uleb128 .Ltmp24-.Ltmp23                #   Call between .Ltmp23 and .Ltmp24
	.uleb128 .Ltmp25-.Lfunc_begin0          #     jumps to .Ltmp25
	.byte	0                               #   On action: cleanup
	.uleb128 .Ltmp24-.Lfunc_begin0          # >> Call Site 8 <<
	.uleb128 .Ltmp26-.Ltmp24                #   Call between .Ltmp24 and .Ltmp26
	.byte	0                               #     has no landing pad
	.byte	0                               #   On action: cleanup
	.uleb128 .Ltmp26-.Lfunc_begin0          # >> Call Site 9 <<
	.uleb128 .Ltmp27-.Ltmp26                #   Call between .Ltmp26 and .Ltmp27
	.uleb128 .Ltmp28-.Lfunc_begin0          #     jumps to .Ltmp28
	.byte	5                               #   On action: 3
	.uleb128 .Ltmp29-.Lfunc_begin0          # >> Call Site 10 <<
	.uleb128 .Ltmp30-.Ltmp29                #   Call between .Ltmp29 and .Ltmp30
	.uleb128 .Ltmp31-.Lfunc_begin0          #     jumps to .Ltmp31
	.byte	5                               #   On action: 3
	.uleb128 .Ltmp32-.Lfunc_begin0          # >> Call Site 11 <<
	.uleb128 .Ltmp33-.Ltmp32                #   Call between .Ltmp32 and .Ltmp33
	.uleb128 .Ltmp34-.Lfunc_begin0          #     jumps to .Ltmp34
	.byte	5                               #   On action: 3
	.uleb128 .Ltmp38-.Lfunc_begin0          # >> Call Site 12 <<
	.uleb128 .Ltmp39-.Ltmp38                #   Call between .Ltmp38 and .Ltmp39
	.uleb128 .Ltmp283-.Lfunc_begin0         #     jumps to .Ltmp283
	.byte	0                               #   On action: cleanup
	.uleb128 .Ltmp40-.Lfunc_begin0          # >> Call Site 13 <<
	.uleb128 .Ltmp41-.Ltmp40                #   Call between .Ltmp40 and .Ltmp41
	.uleb128 .Ltmp42-.Lfunc_begin0          #     jumps to .Ltmp42
	.byte	0                               #   On action: cleanup
	.uleb128 .Ltmp43-.Lfunc_begin0          # >> Call Site 14 <<
	.uleb128 .Ltmp44-.Ltmp43                #   Call between .Ltmp43 and .Ltmp44
	.uleb128 .Ltmp45-.Lfunc_begin0          #     jumps to .Ltmp45
	.byte	0                               #   On action: cleanup
	.uleb128 .Ltmp46-.Lfunc_begin0          # >> Call Site 15 <<
	.uleb128 .Ltmp47-.Ltmp46                #   Call between .Ltmp46 and .Ltmp47
	.uleb128 .Ltmp48-.Lfunc_begin0          #     jumps to .Ltmp48
	.byte	5                               #   On action: 3
	.uleb128 .Ltmp55-.Lfunc_begin0          # >> Call Site 16 <<
	.uleb128 .Ltmp56-.Ltmp55                #   Call between .Ltmp55 and .Ltmp56
	.uleb128 .Ltmp57-.Lfunc_begin0          #     jumps to .Ltmp57
	.byte	5                               #   On action: 3
	.uleb128 .Ltmp58-.Lfunc_begin0          # >> Call Site 17 <<
	.uleb128 .Ltmp59-.Ltmp58                #   Call between .Ltmp58 and .Ltmp59
	.uleb128 .Ltmp60-.Lfunc_begin0          #     jumps to .Ltmp60
	.byte	5                               #   On action: 3
	.uleb128 .Ltmp61-.Lfunc_begin0          # >> Call Site 18 <<
	.uleb128 .Ltmp62-.Ltmp61                #   Call between .Ltmp61 and .Ltmp62
	.uleb128 .Ltmp63-.Lfunc_begin0          #     jumps to .Ltmp63
	.byte	5                               #   On action: 3
	.uleb128 .Ltmp67-.Lfunc_begin0          # >> Call Site 19 <<
	.uleb128 .Ltmp68-.Ltmp67                #   Call between .Ltmp67 and .Ltmp68
	.uleb128 .Ltmp283-.Lfunc_begin0         #     jumps to .Ltmp283
	.byte	0                               #   On action: cleanup
	.uleb128 .Ltmp69-.Lfunc_begin0          # >> Call Site 20 <<
	.uleb128 .Ltmp70-.Ltmp69                #   Call between .Ltmp69 and .Ltmp70
	.uleb128 .Ltmp71-.Lfunc_begin0          #     jumps to .Ltmp71
	.byte	0                               #   On action: cleanup
	.uleb128 .Ltmp72-.Lfunc_begin0          # >> Call Site 21 <<
	.uleb128 .Ltmp73-.Ltmp72                #   Call between .Ltmp72 and .Ltmp73
	.uleb128 .Ltmp74-.Lfunc_begin0          #     jumps to .Ltmp74
	.byte	0                               #   On action: cleanup
	.uleb128 .Ltmp75-.Lfunc_begin0          # >> Call Site 22 <<
	.uleb128 .Ltmp76-.Ltmp75                #   Call between .Ltmp75 and .Ltmp76
	.uleb128 .Ltmp77-.Lfunc_begin0          #     jumps to .Ltmp77
	.byte	5                               #   On action: 3
	.uleb128 .Ltmp84-.Lfunc_begin0          # >> Call Site 23 <<
	.uleb128 .Ltmp85-.Ltmp84                #   Call between .Ltmp84 and .Ltmp85
	.uleb128 .Ltmp86-.Lfunc_begin0          #     jumps to .Ltmp86
	.byte	5                               #   On action: 3
	.uleb128 .Ltmp87-.Lfunc_begin0          # >> Call Site 24 <<
	.uleb128 .Ltmp88-.Ltmp87                #   Call between .Ltmp87 and .Ltmp88
	.uleb128 .Ltmp89-.Lfunc_begin0          #     jumps to .Ltmp89
	.byte	5                               #   On action: 3
	.uleb128 .Ltmp90-.Lfunc_begin0          # >> Call Site 25 <<
	.uleb128 .Ltmp91-.Ltmp90                #   Call between .Ltmp90 and .Ltmp91
	.uleb128 .Ltmp92-.Lfunc_begin0          #     jumps to .Ltmp92
	.byte	5                               #   On action: 3
	.uleb128 .Ltmp96-.Lfunc_begin0          # >> Call Site 26 <<
	.uleb128 .Ltmp97-.Ltmp96                #   Call between .Ltmp96 and .Ltmp97
	.uleb128 .Ltmp283-.Lfunc_begin0         #     jumps to .Ltmp283
	.byte	0                               #   On action: cleanup
	.uleb128 .Ltmp98-.Lfunc_begin0          # >> Call Site 27 <<
	.uleb128 .Ltmp99-.Ltmp98                #   Call between .Ltmp98 and .Ltmp99
	.uleb128 .Ltmp100-.Lfunc_begin0         #     jumps to .Ltmp100
	.byte	0                               #   On action: cleanup
	.uleb128 .Ltmp101-.Lfunc_begin0         # >> Call Site 28 <<
	.uleb128 .Ltmp102-.Ltmp101              #   Call between .Ltmp101 and .Ltmp102
	.uleb128 .Ltmp103-.Lfunc_begin0         #     jumps to .Ltmp103
	.byte	0                               #   On action: cleanup
	.uleb128 .Ltmp104-.Lfunc_begin0         # >> Call Site 29 <<
	.uleb128 .Ltmp105-.Ltmp104              #   Call between .Ltmp104 and .Ltmp105
	.uleb128 .Ltmp106-.Lfunc_begin0         #     jumps to .Ltmp106
	.byte	5                               #   On action: 3
	.uleb128 .Ltmp113-.Lfunc_begin0         # >> Call Site 30 <<
	.uleb128 .Ltmp114-.Ltmp113              #   Call between .Ltmp113 and .Ltmp114
	.uleb128 .Ltmp115-.Lfunc_begin0         #     jumps to .Ltmp115
	.byte	5                               #   On action: 3
	.uleb128 .Ltmp116-.Lfunc_begin0         # >> Call Site 31 <<
	.uleb128 .Ltmp117-.Ltmp116              #   Call between .Ltmp116 and .Ltmp117
	.uleb128 .Ltmp118-.Lfunc_begin0         #     jumps to .Ltmp118
	.byte	5                               #   On action: 3
	.uleb128 .Ltmp119-.Lfunc_begin0         # >> Call Site 32 <<
	.uleb128 .Ltmp120-.Ltmp119              #   Call between .Ltmp119 and .Ltmp120
	.uleb128 .Ltmp121-.Lfunc_begin0         #     jumps to .Ltmp121
	.byte	5                               #   On action: 3
	.uleb128 .Ltmp125-.Lfunc_begin0         # >> Call Site 33 <<
	.uleb128 .Ltmp126-.Ltmp125              #   Call between .Ltmp125 and .Ltmp126
	.uleb128 .Ltmp283-.Lfunc_begin0         #     jumps to .Ltmp283
	.byte	0                               #   On action: cleanup
	.uleb128 .Ltmp127-.Lfunc_begin0         # >> Call Site 34 <<
	.uleb128 .Ltmp128-.Ltmp127              #   Call between .Ltmp127 and .Ltmp128
	.uleb128 .Ltmp129-.Lfunc_begin0         #     jumps to .Ltmp129
	.byte	0                               #   On action: cleanup
	.uleb128 .Ltmp130-.Lfunc_begin0         # >> Call Site 35 <<
	.uleb128 .Ltmp131-.Ltmp130              #   Call between .Ltmp130 and .Ltmp131
	.uleb128 .Ltmp132-.Lfunc_begin0         #     jumps to .Ltmp132
	.byte	0                               #   On action: cleanup
	.uleb128 .Ltmp133-.Lfunc_begin0         # >> Call Site 36 <<
	.uleb128 .Ltmp134-.Ltmp133              #   Call between .Ltmp133 and .Ltmp134
	.uleb128 .Ltmp135-.Lfunc_begin0         #     jumps to .Ltmp135
	.byte	5                               #   On action: 3
	.uleb128 .Ltmp142-.Lfunc_begin0         # >> Call Site 37 <<
	.uleb128 .Ltmp143-.Ltmp142              #   Call between .Ltmp142 and .Ltmp143
	.uleb128 .Ltmp144-.Lfunc_begin0         #     jumps to .Ltmp144
	.byte	5                               #   On action: 3
	.uleb128 .Ltmp145-.Lfunc_begin0         # >> Call Site 38 <<
	.uleb128 .Ltmp146-.Ltmp145              #   Call between .Ltmp145 and .Ltmp146
	.uleb128 .Ltmp147-.Lfunc_begin0         #     jumps to .Ltmp147
	.byte	5                               #   On action: 3
	.uleb128 .Ltmp148-.Lfunc_begin0         # >> Call Site 39 <<
	.uleb128 .Ltmp149-.Ltmp148              #   Call between .Ltmp148 and .Ltmp149
	.uleb128 .Ltmp150-.Lfunc_begin0         #     jumps to .Ltmp150
	.byte	5                               #   On action: 3
	.uleb128 .Ltmp154-.Lfunc_begin0         # >> Call Site 40 <<
	.uleb128 .Ltmp155-.Ltmp154              #   Call between .Ltmp154 and .Ltmp155
	.uleb128 .Ltmp283-.Lfunc_begin0         #     jumps to .Ltmp283
	.byte	0                               #   On action: cleanup
	.uleb128 .Ltmp156-.Lfunc_begin0         # >> Call Site 41 <<
	.uleb128 .Ltmp157-.Ltmp156              #   Call between .Ltmp156 and .Ltmp157
	.uleb128 .Ltmp158-.Lfunc_begin0         #     jumps to .Ltmp158
	.byte	0                               #   On action: cleanup
	.uleb128 .Ltmp159-.Lfunc_begin0         # >> Call Site 42 <<
	.uleb128 .Ltmp160-.Ltmp159              #   Call between .Ltmp159 and .Ltmp160
	.uleb128 .Ltmp161-.Lfunc_begin0         #     jumps to .Ltmp161
	.byte	0                               #   On action: cleanup
	.uleb128 .Ltmp162-.Lfunc_begin0         # >> Call Site 43 <<
	.uleb128 .Ltmp163-.Ltmp162              #   Call between .Ltmp162 and .Ltmp163
	.uleb128 .Ltmp164-.Lfunc_begin0         #     jumps to .Ltmp164
	.byte	5                               #   On action: 3
	.uleb128 .Ltmp171-.Lfunc_begin0         # >> Call Site 44 <<
	.uleb128 .Ltmp172-.Ltmp171              #   Call between .Ltmp171 and .Ltmp172
	.uleb128 .Ltmp173-.Lfunc_begin0         #     jumps to .Ltmp173
	.byte	5                               #   On action: 3
	.uleb128 .Ltmp174-.Lfunc_begin0         # >> Call Site 45 <<
	.uleb128 .Ltmp175-.Ltmp174              #   Call between .Ltmp174 and .Ltmp175
	.uleb128 .Ltmp176-.Lfunc_begin0         #     jumps to .Ltmp176
	.byte	5                               #   On action: 3
	.uleb128 .Ltmp177-.Lfunc_begin0         # >> Call Site 46 <<
	.uleb128 .Ltmp178-.Ltmp177              #   Call between .Ltmp177 and .Ltmp178
	.uleb128 .Ltmp179-.Lfunc_begin0         #     jumps to .Ltmp179
	.byte	5                               #   On action: 3
	.uleb128 .Ltmp183-.Lfunc_begin0         # >> Call Site 47 <<
	.uleb128 .Ltmp184-.Ltmp183              #   Call between .Ltmp183 and .Ltmp184
	.uleb128 .Ltmp283-.Lfunc_begin0         #     jumps to .Ltmp283
	.byte	0                               #   On action: cleanup
	.uleb128 .Ltmp185-.Lfunc_begin0         # >> Call Site 48 <<
	.uleb128 .Ltmp186-.Ltmp185              #   Call between .Ltmp185 and .Ltmp186
	.uleb128 .Ltmp187-.Lfunc_begin0         #     jumps to .Ltmp187
	.byte	0                               #   On action: cleanup
	.uleb128 .Ltmp188-.Lfunc_begin0         # >> Call Site 49 <<
	.uleb128 .Ltmp189-.Ltmp188              #   Call between .Ltmp188 and .Ltmp189
	.uleb128 .Ltmp190-.Lfunc_begin0         #     jumps to .Ltmp190
	.byte	0                               #   On action: cleanup
	.uleb128 .Ltmp191-.Lfunc_begin0         # >> Call Site 50 <<
	.uleb128 .Ltmp192-.Ltmp191              #   Call between .Ltmp191 and .Ltmp192
	.uleb128 .Ltmp193-.Lfunc_begin0         #     jumps to .Ltmp193
	.byte	5                               #   On action: 3
	.uleb128 .Ltmp200-.Lfunc_begin0         # >> Call Site 51 <<
	.uleb128 .Ltmp201-.Ltmp200              #   Call between .Ltmp200 and .Ltmp201
	.uleb128 .Ltmp202-.Lfunc_begin0         #     jumps to .Ltmp202
	.byte	0                               #   On action: cleanup
	.uleb128 .Ltmp201-.Lfunc_begin0         # >> Call Site 52 <<
	.uleb128 .Ltmp203-.Ltmp201              #   Call between .Ltmp201 and .Ltmp203
	.byte	0                               #     has no landing pad
	.byte	0                               #   On action: cleanup
	.uleb128 .Ltmp203-.Lfunc_begin0         # >> Call Site 53 <<
	.uleb128 .Ltmp204-.Ltmp203              #   Call between .Ltmp203 and .Ltmp204
	.uleb128 .Ltmp205-.Lfunc_begin0         #     jumps to .Ltmp205
	.byte	0                               #   On action: cleanup
	.uleb128 .Ltmp206-.Lfunc_begin0         # >> Call Site 54 <<
	.uleb128 .Ltmp207-.Ltmp206              #   Call between .Ltmp206 and .Ltmp207
	.uleb128 .Ltmp208-.Lfunc_begin0         #     jumps to .Ltmp208
	.byte	5                               #   On action: 3
	.uleb128 .Ltmp209-.Lfunc_begin0         # >> Call Site 55 <<
	.uleb128 .Ltmp210-.Ltmp209              #   Call between .Ltmp209 and .Ltmp210
	.uleb128 .Ltmp211-.Lfunc_begin0         #     jumps to .Ltmp211
	.byte	5                               #   On action: 3
	.uleb128 .Ltmp212-.Lfunc_begin0         # >> Call Site 56 <<
	.uleb128 .Ltmp213-.Ltmp212              #   Call between .Ltmp212 and .Ltmp213
	.uleb128 .Ltmp214-.Lfunc_begin0         #     jumps to .Ltmp214
	.byte	5                               #   On action: 3
	.uleb128 .Ltmp215-.Lfunc_begin0         # >> Call Site 57 <<
	.uleb128 .Ltmp216-.Ltmp215              #   Call between .Ltmp215 and .Ltmp216
	.uleb128 .Ltmp286-.Lfunc_begin0         #     jumps to .Ltmp286
	.byte	3                               #   On action: 2
	.uleb128 .Ltmp217-.Lfunc_begin0         # >> Call Site 58 <<
	.uleb128 .Ltmp218-.Ltmp217              #   Call between .Ltmp217 and .Ltmp218
	.uleb128 .Ltmp219-.Lfunc_begin0         #     jumps to .Ltmp219
	.byte	5                               #   On action: 3
	.uleb128 .Ltmp218-.Lfunc_begin0         # >> Call Site 59 <<
	.uleb128 .Ltmp229-.Ltmp218              #   Call between .Ltmp218 and .Ltmp229
	.byte	0                               #     has no landing pad
	.byte	0                               #   On action: cleanup
	.uleb128 .Ltmp229-.Lfunc_begin0         # >> Call Site 60 <<
	.uleb128 .Ltmp230-.Ltmp229              #   Call between .Ltmp229 and .Ltmp230
	.uleb128 .Ltmp231-.Lfunc_begin0         #     jumps to .Ltmp231
	.byte	3                               #   On action: 2
	.uleb128 .Ltmp232-.Lfunc_begin0         # >> Call Site 61 <<
	.uleb128 .Ltmp259-.Ltmp232              #   Call between .Ltmp232 and .Ltmp259
	.uleb128 .Ltmp283-.Lfunc_begin0         #     jumps to .Ltmp283
	.byte	0                               #   On action: cleanup
	.uleb128 .Ltmp220-.Lfunc_begin0         # >> Call Site 62 <<
	.uleb128 .Ltmp221-.Ltmp220              #   Call between .Ltmp220 and .Ltmp221
	.uleb128 .Ltmp222-.Lfunc_begin0         #     jumps to .Ltmp222
	.byte	5                               #   On action: 3
	.uleb128 .Ltmp221-.Lfunc_begin0         # >> Call Site 63 <<
	.uleb128 .Ltmp35-.Ltmp221               #   Call between .Ltmp221 and .Ltmp35
	.byte	0                               #     has no landing pad
	.byte	0                               #   On action: cleanup
	.uleb128 .Ltmp35-.Lfunc_begin0          # >> Call Site 64 <<
	.uleb128 .Ltmp36-.Ltmp35                #   Call between .Ltmp35 and .Ltmp36
	.uleb128 .Ltmp37-.Lfunc_begin0          #     jumps to .Ltmp37
	.byte	0                               #   On action: cleanup
	.uleb128 .Ltmp36-.Lfunc_begin0          # >> Call Site 65 <<
	.uleb128 .Ltmp64-.Ltmp36                #   Call between .Ltmp36 and .Ltmp64
	.byte	0                               #     has no landing pad
	.byte	0                               #   On action: cleanup
	.uleb128 .Ltmp64-.Lfunc_begin0          # >> Call Site 66 <<
	.uleb128 .Ltmp65-.Ltmp64                #   Call between .Ltmp64 and .Ltmp65
	.uleb128 .Ltmp66-.Lfunc_begin0          #     jumps to .Ltmp66
	.byte	0                               #   On action: cleanup
	.uleb128 .Ltmp65-.Lfunc_begin0          # >> Call Site 67 <<
	.uleb128 .Ltmp93-.Ltmp65                #   Call between .Ltmp65 and .Ltmp93
	.byte	0                               #     has no landing pad
	.byte	0                               #   On action: cleanup
	.uleb128 .Ltmp93-.Lfunc_begin0          # >> Call Site 68 <<
	.uleb128 .Ltmp94-.Ltmp93                #   Call between .Ltmp93 and .Ltmp94
	.uleb128 .Ltmp95-.Lfunc_begin0          #     jumps to .Ltmp95
	.byte	0                               #   On action: cleanup
	.uleb128 .Ltmp94-.Lfunc_begin0          # >> Call Site 69 <<
	.uleb128 .Ltmp122-.Ltmp94               #   Call between .Ltmp94 and .Ltmp122
	.byte	0                               #     has no landing pad
	.byte	0                               #   On action: cleanup
	.uleb128 .Ltmp122-.Lfunc_begin0         # >> Call Site 70 <<
	.uleb128 .Ltmp123-.Ltmp122              #   Call between .Ltmp122 and .Ltmp123
	.uleb128 .Ltmp124-.Lfunc_begin0         #     jumps to .Ltmp124
	.byte	0                               #   On action: cleanup
	.uleb128 .Ltmp123-.Lfunc_begin0         # >> Call Site 71 <<
	.uleb128 .Ltmp151-.Ltmp123              #   Call between .Ltmp123 and .Ltmp151
	.byte	0                               #     has no landing pad
	.byte	0                               #   On action: cleanup
	.uleb128 .Ltmp151-.Lfunc_begin0         # >> Call Site 72 <<
	.uleb128 .Ltmp152-.Ltmp151              #   Call between .Ltmp151 and .Ltmp152
	.uleb128 .Ltmp153-.Lfunc_begin0         #     jumps to .Ltmp153
	.byte	0                               #   On action: cleanup
	.uleb128 .Ltmp152-.Lfunc_begin0         # >> Call Site 73 <<
	.uleb128 .Ltmp180-.Ltmp152              #   Call between .Ltmp152 and .Ltmp180
	.byte	0                               #     has no landing pad
	.byte	0                               #   On action: cleanup
	.uleb128 .Ltmp180-.Lfunc_begin0         # >> Call Site 74 <<
	.uleb128 .Ltmp181-.Ltmp180              #   Call between .Ltmp180 and .Ltmp181
	.uleb128 .Ltmp182-.Lfunc_begin0         #     jumps to .Ltmp182
	.byte	0                               #   On action: cleanup
	.uleb128 .Ltmp284-.Lfunc_begin0         # >> Call Site 75 <<
	.uleb128 .Ltmp285-.Ltmp284              #   Call between .Ltmp284 and .Ltmp285
	.uleb128 .Ltmp286-.Lfunc_begin0         #     jumps to .Ltmp286
	.byte	3                               #   On action: 2
	.uleb128 .Ltmp285-.Lfunc_begin0         # >> Call Site 76 <<
	.uleb128 .Ltmp278-.Ltmp285              #   Call between .Ltmp285 and .Ltmp278
	.byte	0                               #     has no landing pad
	.byte	0                               #   On action: cleanup
	.uleb128 .Ltmp278-.Lfunc_begin0         # >> Call Site 77 <<
	.uleb128 .Ltmp279-.Ltmp278              #   Call between .Ltmp278 and .Ltmp279
	.uleb128 .Ltmp280-.Lfunc_begin0         #     jumps to .Ltmp280
	.byte	0                               #   On action: cleanup
	.uleb128 .Ltmp279-.Lfunc_begin0         # >> Call Site 78 <<
	.uleb128 .Ltmp275-.Ltmp279              #   Call between .Ltmp279 and .Ltmp275
	.byte	0                               #     has no landing pad
	.byte	0                               #   On action: cleanup
	.uleb128 .Ltmp275-.Lfunc_begin0         # >> Call Site 79 <<
	.uleb128 .Ltmp276-.Ltmp275              #   Call between .Ltmp275 and .Ltmp276
	.uleb128 .Ltmp277-.Lfunc_begin0         #     jumps to .Ltmp277
	.byte	0                               #   On action: cleanup
	.uleb128 .Ltmp276-.Lfunc_begin0         # >> Call Site 80 <<
	.uleb128 .Ltmp272-.Ltmp276              #   Call between .Ltmp276 and .Ltmp272
	.byte	0                               #     has no landing pad
	.byte	0                               #   On action: cleanup
	.uleb128 .Ltmp272-.Lfunc_begin0         # >> Call Site 81 <<
	.uleb128 .Ltmp273-.Ltmp272              #   Call between .Ltmp272 and .Ltmp273
	.uleb128 .Ltmp274-.Lfunc_begin0         #     jumps to .Ltmp274
	.byte	0                               #   On action: cleanup
	.uleb128 .Ltmp273-.Lfunc_begin0         # >> Call Site 82 <<
	.uleb128 .Ltmp269-.Ltmp273              #   Call between .Ltmp273 and .Ltmp269
	.byte	0                               #     has no landing pad
	.byte	0                               #   On action: cleanup
	.uleb128 .Ltmp269-.Lfunc_begin0         # >> Call Site 83 <<
	.uleb128 .Ltmp270-.Ltmp269              #   Call between .Ltmp269 and .Ltmp270
	.uleb128 .Ltmp271-.Lfunc_begin0         #     jumps to .Ltmp271
	.byte	0                               #   On action: cleanup
	.uleb128 .Ltmp270-.Lfunc_begin0         # >> Call Site 84 <<
	.uleb128 .Ltmp266-.Ltmp270              #   Call between .Ltmp270 and .Ltmp266
	.byte	0                               #     has no landing pad
	.byte	0                               #   On action: cleanup
	.uleb128 .Ltmp266-.Lfunc_begin0         # >> Call Site 85 <<
	.uleb128 .Ltmp267-.Ltmp266              #   Call between .Ltmp266 and .Ltmp267
	.uleb128 .Ltmp268-.Lfunc_begin0         #     jumps to .Ltmp268
	.byte	0                               #   On action: cleanup
	.uleb128 .Ltmp267-.Lfunc_begin0         # >> Call Site 86 <<
	.uleb128 .Ltmp263-.Ltmp267              #   Call between .Ltmp267 and .Ltmp263
	.byte	0                               #     has no landing pad
	.byte	0                               #   On action: cleanup
	.uleb128 .Ltmp263-.Lfunc_begin0         # >> Call Site 87 <<
	.uleb128 .Ltmp264-.Ltmp263              #   Call between .Ltmp263 and .Ltmp264
	.uleb128 .Ltmp265-.Lfunc_begin0         #     jumps to .Ltmp265
	.byte	0                               #   On action: cleanup
	.uleb128 .Ltmp264-.Lfunc_begin0         # >> Call Site 88 <<
	.uleb128 .Ltmp260-.Ltmp264              #   Call between .Ltmp264 and .Ltmp260
	.byte	0                               #     has no landing pad
	.byte	0                               #   On action: cleanup
	.uleb128 .Ltmp260-.Lfunc_begin0         # >> Call Site 89 <<
	.uleb128 .Ltmp261-.Ltmp260              #   Call between .Ltmp260 and .Ltmp261
	.uleb128 .Ltmp262-.Lfunc_begin0         #     jumps to .Ltmp262
	.byte	0                               #   On action: cleanup
	.uleb128 .Ltmp281-.Lfunc_begin0         # >> Call Site 90 <<
	.uleb128 .Ltmp282-.Ltmp281              #   Call between .Ltmp281 and .Ltmp282
	.uleb128 .Ltmp283-.Lfunc_begin0         #     jumps to .Ltmp283
	.byte	0                               #   On action: cleanup
	.uleb128 .Ltmp282-.Lfunc_begin0         # >> Call Site 91 <<
	.uleb128 .Ltmp194-.Ltmp282              #   Call between .Ltmp282 and .Ltmp194
	.byte	0                               #     has no landing pad
	.byte	0                               #   On action: cleanup
	.uleb128 .Ltmp194-.Lfunc_begin0         # >> Call Site 92 <<
	.uleb128 .Ltmp195-.Ltmp194              #   Call between .Ltmp194 and .Ltmp195
	.uleb128 .Ltmp196-.Lfunc_begin0         #     jumps to .Ltmp196
	.byte	0                               #   On action: cleanup
	.uleb128 .Ltmp197-.Lfunc_begin0         # >> Call Site 93 <<
	.uleb128 .Ltmp198-.Ltmp197              #   Call between .Ltmp197 and .Ltmp198
	.uleb128 .Ltmp199-.Lfunc_begin0         #     jumps to .Ltmp199
	.byte	5                               #   On action: 3
	.uleb128 .Ltmp198-.Lfunc_begin0         # >> Call Site 94 <<
	.uleb128 .Ltmp165-.Ltmp198              #   Call between .Ltmp198 and .Ltmp165
	.byte	0                               #     has no landing pad
	.byte	0                               #   On action: cleanup
	.uleb128 .Ltmp165-.Lfunc_begin0         # >> Call Site 95 <<
	.uleb128 .Ltmp166-.Ltmp165              #   Call between .Ltmp165 and .Ltmp166
	.uleb128 .Ltmp167-.Lfunc_begin0         #     jumps to .Ltmp167
	.byte	0                               #   On action: cleanup
	.uleb128 .Ltmp168-.Lfunc_begin0         # >> Call Site 96 <<
	.uleb128 .Ltmp169-.Ltmp168              #   Call between .Ltmp168 and .Ltmp169
	.uleb128 .Ltmp170-.Lfunc_begin0         #     jumps to .Ltmp170
	.byte	5                               #   On action: 3
	.uleb128 .Ltmp169-.Lfunc_begin0         # >> Call Site 97 <<
	.uleb128 .Ltmp136-.Ltmp169              #   Call between .Ltmp169 and .Ltmp136
	.byte	0                               #     has no landing pad
	.byte	0                               #   On action: cleanup
	.uleb128 .Ltmp136-.Lfunc_begin0         # >> Call Site 98 <<
	.uleb128 .Ltmp137-.Ltmp136              #   Call between .Ltmp136 and .Ltmp137
	.uleb128 .Ltmp138-.Lfunc_begin0         #     jumps to .Ltmp138
	.byte	0                               #   On action: cleanup
	.uleb128 .Ltmp139-.Lfunc_begin0         # >> Call Site 99 <<
	.uleb128 .Ltmp140-.Ltmp139              #   Call between .Ltmp139 and .Ltmp140
	.uleb128 .Ltmp141-.Lfunc_begin0         #     jumps to .Ltmp141
	.byte	5                               #   On action: 3
	.uleb128 .Ltmp140-.Lfunc_begin0         # >> Call Site 100 <<
	.uleb128 .Ltmp107-.Ltmp140              #   Call between .Ltmp140 and .Ltmp107
	.byte	0                               #     has no landing pad
	.byte	0                               #   On action: cleanup
	.uleb128 .Ltmp107-.Lfunc_begin0         # >> Call Site 101 <<
	.uleb128 .Ltmp108-.Ltmp107              #   Call between .Ltmp107 and .Ltmp108
	.uleb128 .Ltmp109-.Lfunc_begin0         #     jumps to .Ltmp109
	.byte	0                               #   On action: cleanup
	.uleb128 .Ltmp110-.Lfunc_begin0         # >> Call Site 102 <<
	.uleb128 .Ltmp111-.Ltmp110              #   Call between .Ltmp110 and .Ltmp111
	.uleb128 .Ltmp112-.Lfunc_begin0         #     jumps to .Ltmp112
	.byte	5                               #   On action: 3
	.uleb128 .Ltmp111-.Lfunc_begin0         # >> Call Site 103 <<
	.uleb128 .Ltmp78-.Ltmp111               #   Call between .Ltmp111 and .Ltmp78
	.byte	0                               #     has no landing pad
	.byte	0                               #   On action: cleanup
	.uleb128 .Ltmp78-.Lfunc_begin0          # >> Call Site 104 <<
	.uleb128 .Ltmp79-.Ltmp78                #   Call between .Ltmp78 and .Ltmp79
	.uleb128 .Ltmp80-.Lfunc_begin0          #     jumps to .Ltmp80
	.byte	0                               #   On action: cleanup
	.uleb128 .Ltmp81-.Lfunc_begin0          # >> Call Site 105 <<
	.uleb128 .Ltmp82-.Ltmp81                #   Call between .Ltmp81 and .Ltmp82
	.uleb128 .Ltmp83-.Lfunc_begin0          #     jumps to .Ltmp83
	.byte	5                               #   On action: 3
	.uleb128 .Ltmp82-.Lfunc_begin0          # >> Call Site 106 <<
	.uleb128 .Ltmp49-.Ltmp82                #   Call between .Ltmp82 and .Ltmp49
	.byte	0                               #     has no landing pad
	.byte	0                               #   On action: cleanup
	.uleb128 .Ltmp49-.Lfunc_begin0          # >> Call Site 107 <<
	.uleb128 .Ltmp50-.Ltmp49                #   Call between .Ltmp49 and .Ltmp50
	.uleb128 .Ltmp51-.Lfunc_begin0          #     jumps to .Ltmp51
	.byte	0                               #   On action: cleanup
	.uleb128 .Ltmp52-.Lfunc_begin0          # >> Call Site 108 <<
	.uleb128 .Ltmp53-.Ltmp52                #   Call between .Ltmp52 and .Ltmp53
	.uleb128 .Ltmp54-.Lfunc_begin0          #     jumps to .Ltmp54
	.byte	5                               #   On action: 3
	.uleb128 .Ltmp53-.Lfunc_begin0          # >> Call Site 109 <<
	.uleb128 .Ltmp17-.Ltmp53                #   Call between .Ltmp53 and .Ltmp17
	.byte	0                               #     has no landing pad
	.byte	0                               #   On action: cleanup
	.uleb128 .Ltmp17-.Lfunc_begin0          # >> Call Site 110 <<
	.uleb128 .Ltmp18-.Ltmp17                #   Call between .Ltmp17 and .Ltmp18
	.uleb128 .Ltmp19-.Lfunc_begin0          #     jumps to .Ltmp19
	.byte	0                               #   On action: cleanup
	.uleb128 .Ltmp20-.Lfunc_begin0          # >> Call Site 111 <<
	.uleb128 .Ltmp21-.Ltmp20                #   Call between .Ltmp20 and .Ltmp21
	.uleb128 .Ltmp22-.Lfunc_begin0          #     jumps to .Ltmp22
	.byte	5                               #   On action: 3
	.uleb128 .Ltmp21-.Lfunc_begin0          # >> Call Site 112 <<
	.uleb128 .Ltmp223-.Ltmp21               #   Call between .Ltmp21 and .Ltmp223
	.byte	0                               #     has no landing pad
	.byte	0                               #   On action: cleanup
	.uleb128 .Ltmp223-.Lfunc_begin0         # >> Call Site 113 <<
	.uleb128 .Ltmp224-.Ltmp223              #   Call between .Ltmp223 and .Ltmp224
	.uleb128 .Ltmp225-.Lfunc_begin0         #     jumps to .Ltmp225
	.byte	3                               #   On action: 2
	.uleb128 .Ltmp226-.Lfunc_begin0         # >> Call Site 114 <<
	.uleb128 .Ltmp227-.Ltmp226              #   Call between .Ltmp226 and .Ltmp227
	.uleb128 .Ltmp228-.Lfunc_begin0         #     jumps to .Ltmp228
	.byte	5                               #   On action: 3
	.uleb128 .Ltmp227-.Lfunc_begin0         # >> Call Site 115 <<
	.uleb128 .Ltmp287-.Ltmp227              #   Call between .Ltmp227 and .Ltmp287
	.byte	0                               #     has no landing pad
	.byte	0                               #   On action: cleanup
	.uleb128 .Ltmp287-.Lfunc_begin0         # >> Call Site 116 <<
	.uleb128 .Ltmp292-.Ltmp287              #   Call between .Ltmp287 and .Ltmp292
	.uleb128 .Ltmp293-.Lfunc_begin0         #     jumps to .Ltmp293
	.byte	0                               #   On action: cleanup
	.uleb128 .Ltmp294-.Lfunc_begin0         # >> Call Site 117 <<
	.uleb128 .Ltmp295-.Ltmp294              #   Call between .Ltmp294 and .Ltmp295
	.uleb128 .Ltmp296-.Lfunc_begin0         #     jumps to .Ltmp296
	.byte	5                               #   On action: 3
	.uleb128 .Ltmp295-.Lfunc_begin0         # >> Call Site 118 <<
	.uleb128 .Lfunc_end0-.Ltmp295           #   Call between .Ltmp295 and .Lfunc_end0
	.byte	0                               #     has no landing pad
	.byte	0                               #   On action: cleanup
.Lcst_end0:
	.byte	0                               # >> Action Record 1 <<
                                        #   Cleanup
	.byte	0                               #   No further actions
	.byte	2                               # >> Action Record 2 <<
                                        #   Catch TypeInfo 2
	.byte	125                             #   Continue to action 1
	.byte	1                               # >> Action Record 3 <<
                                        #   Catch TypeInfo 1
	.byte	0                               #   No further actions
	.p2align	2, 0x0
                                        # >> Catch TypeInfos <<
	.long	_ZTISt9exception                # TypeInfo 2
	.long	0                               # TypeInfo 1
.Lttbase0:
	.p2align	2, 0x0
                                        # -- End function
	.section	.text._ZNSt7__cxx1112basic_stringIcSt11char_traitsIcESaIcEEC2IS3_EEPKcRKS3_,"axG",@progbits,_ZNSt7__cxx1112basic_stringIcSt11char_traitsIcESaIcEEC2IS3_EEPKcRKS3_,comdat
	.weak	_ZNSt7__cxx1112basic_stringIcSt11char_traitsIcESaIcEEC2IS3_EEPKcRKS3_ # -- Begin function _ZNSt7__cxx1112basic_stringIcSt11char_traitsIcESaIcEEC2IS3_EEPKcRKS3_
	.p2align	4, 0x90
	.type	_ZNSt7__cxx1112basic_stringIcSt11char_traitsIcESaIcEEC2IS3_EEPKcRKS3_,@function
_ZNSt7__cxx1112basic_stringIcSt11char_traitsIcESaIcEEC2IS3_EEPKcRKS3_: # @_ZNSt7__cxx1112basic_stringIcSt11char_traitsIcESaIcEEC2IS3_EEPKcRKS3_
	.cfi_startproc
# %bb.0:
	pushq	%r15
	.cfi_def_cfa_offset 16
	pushq	%r14
	.cfi_def_cfa_offset 24
	pushq	%r12
	.cfi_def_cfa_offset 32
	pushq	%rbx
	.cfi_def_cfa_offset 40
	pushq	%rax
	.cfi_def_cfa_offset 48
	.cfi_offset %rbx, -40
	.cfi_offset %r12, -32
	.cfi_offset %r14, -24
	.cfi_offset %r15, -16
	leaq	16(%rdi), %r12
	movq	%r12, (%rdi)
	testq	%rsi, %rsi
	je	.LBB1_8
# %bb.1:
	movq	%rsi, %r14
	movq	%rdi, %rbx
	movq	%rsi, %rdi
	callq	strlen
	movq	%rax, %r15
	movq	%rax, (%rsp)
	cmpq	$16, %rax
	jb	.LBB1_3
# %bb.2:                                # %.noexc8
	movq	%rsp, %rsi
	movq	%rbx, %rdi
	xorl	%edx, %edx
	callq	_ZNSt7__cxx1112basic_stringIcSt11char_traitsIcESaIcEE9_M_createERmm
	movq	%rax, %r12
	movq	%rax, (%rbx)
	movq	(%rsp), %rax
	movq	%rax, 16(%rbx)
.LBB1_3:                                # %._crit_edge.i.i.i
	testq	%r15, %r15
	je	.LBB1_7
# %bb.4:                                # %._crit_edge.i.i.i
	cmpq	$1, %r15
	jne	.LBB1_6
# %bb.5:
	movzbl	(%r14), %eax
	movb	%al, (%r12)
	jmp	.LBB1_7
.LBB1_6:
	movq	%r12, %rdi
	movq	%r14, %rsi
	movq	%r15, %rdx
	callq	memcpy@PLT
.LBB1_7:
	movq	(%rsp), %rax
	movq	%rax, 8(%rbx)
	movq	(%rbx), %rcx
	movb	$0, (%rcx,%rax)
	addq	$8, %rsp
	.cfi_def_cfa_offset 40
	popq	%rbx
	.cfi_def_cfa_offset 32
	popq	%r12
	.cfi_def_cfa_offset 24
	popq	%r14
	.cfi_def_cfa_offset 16
	popq	%r15
	.cfi_def_cfa_offset 8
	retq
.LBB1_8:                                # %.noexc
	.cfi_def_cfa_offset 48
	movl	$.L.str.33, %edi
	callq	_ZSt19__throw_logic_errorPKc
.Lfunc_end1:
	.size	_ZNSt7__cxx1112basic_stringIcSt11char_traitsIcESaIcEEC2IS3_EEPKcRKS3_, .Lfunc_end1-_ZNSt7__cxx1112basic_stringIcSt11char_traitsIcESaIcEEC2IS3_EEPKcRKS3_
	.cfi_endproc
                                        # -- End function
	.section	.text._ZN8argparse14ArgumentParserC2ENSt7__cxx1112basic_stringIcSt11char_traitsIcESaIcEEES6_NS_17default_argumentsEbRSo,"axG",@progbits,_ZN8argparse14ArgumentParserC2ENSt7__cxx1112basic_stringIcSt11char_traitsIcESaIcEEES6_NS_17default_argumentsEbRSo,comdat
	.weak	_ZN8argparse14ArgumentParserC2ENSt7__cxx1112basic_stringIcSt11char_traitsIcESaIcEEES6_NS_17default_argumentsEbRSo # -- Begin function _ZN8argparse14ArgumentParserC2ENSt7__cxx1112basic_stringIcSt11char_traitsIcESaIcEEES6_NS_17default_argumentsEbRSo
	.p2align	4, 0x90
	.type	_ZN8argparse14ArgumentParserC2ENSt7__cxx1112basic_stringIcSt11char_traitsIcESaIcEEES6_NS_17default_argumentsEbRSo,@function
_ZN8argparse14ArgumentParserC2ENSt7__cxx1112basic_stringIcSt11char_traitsIcESaIcEEES6_NS_17default_argumentsEbRSo: # @_ZN8argparse14ArgumentParserC2ENSt7__cxx1112basic_stringIcSt11char_traitsIcESaIcEEES6_NS_17default_argumentsEbRSo
.Lfunc_begin1:
	.cfi_startproc
	.cfi_personality 3, __gxx_personality_v0
	.cfi_lsda 3, .Lexception1
# %bb.0:
	pushq	%rbp
	.cfi_def_cfa_offset 16
	pushq	%r15
	.cfi_def_cfa_offset 24
	pushq	%r14
	.cfi_def_cfa_offset 32
	pushq	%r13
	.cfi_def_cfa_offset 40
	pushq	%r12
	.cfi_def_cfa_offset 48
	pushq	%rbx
	.cfi_def_cfa_offset 56
	subq	$216, %rsp
	.cfi_def_cfa_offset 272
	.cfi_offset %rbx, -56
	.cfi_offset %r12, -48
	.cfi_offset %r13, -40
	.cfi_offset %r14, -32
	.cfi_offset %r15, -24
	.cfi_offset %rbp, -16
	movq	%r9, 136(%rsp)                  # 8-byte Spill
	movl	%ecx, %ebp
	movq	%rdi, %rbx
	addq	$16, %rdi
	movq	%rdi, (%rbx)
	movq	(%rsi), %rcx
	leaq	16(%rsi), %rax
	cmpq	%rax, %rcx
	je	.LBB2_2
# %bb.1:
	movq	%rcx, (%rbx)
	movq	(%rax), %rcx
	movq	%rcx, 16(%rbx)
	jmp	.LBB2_3
.LBB2_2:
	movups	(%rcx), %xmm0
	movups	%xmm0, (%rdi)
.LBB2_3:                                # %_ZNSt7__cxx1112basic_stringIcSt11char_traitsIcESaIcEEC2EOS4_.exit
	movq	8(%rsi), %rcx
	movq	%rcx, 8(%rbx)
	movq	%rax, (%rsi)
	movq	$0, 8(%rsi)
	movb	$0, 16(%rsi)
	leaq	48(%rbx), %rsi
	movq	%rsi, 32(%rbx)
	movq	(%rdx), %rcx
	leaq	16(%rdx), %rax
	cmpq	%rax, %rcx
	movq	%rdi, 208(%rsp)                 # 8-byte Spill
	movq	%rsi, 200(%rsp)                 # 8-byte Spill
	je	.LBB2_5
# %bb.4:
	movq	%rcx, 32(%rbx)
	movq	(%rax), %rcx
	movq	%rcx, 48(%rbx)
	jmp	.LBB2_6
.LBB2_5:
	movups	(%rcx), %xmm0
	movups	%xmm0, (%rsi)
.LBB2_6:                                # %_ZNSt7__cxx1112basic_stringIcSt11char_traitsIcESaIcEEC2EOS4_.exit30
	movq	8(%rdx), %rcx
	movq	%rcx, 40(%rbx)
	movq	%rax, (%rdx)
	movq	$0, 8(%rdx)
	movb	$0, 16(%rdx)
	leaq	80(%rbx), %rax
	movq	%rax, 192(%rsp)                 # 8-byte Spill
	movq	%rax, 64(%rbx)
	movq	$0, 72(%rbx)
	movb	$0, 80(%rbx)
	leaq	112(%rbx), %rax
	movq	%rax, 184(%rsp)                 # 8-byte Spill
	movq	%rax, 96(%rbx)
	movq	$0, 104(%rbx)
	movb	$0, 112(%rbx)
	movb	%r8b, 128(%rbx)
	leaq	152(%rbx), %rax
	movq	%rax, 176(%rsp)                 # 8-byte Spill
	movq	%rax, 136(%rbx)
	movw	$45, 152(%rbx)
	movq	$1, 144(%rbx)
	leaq	184(%rbx), %rax
	movq	%rax, 168(%rsp)                 # 8-byte Spill
	movq	%rax, 168(%rbx)
	movw	$61, 184(%rbx)
	movq	$1, 176(%rbx)
	movb	$0, 200(%rbx)
	leaq	208(%rbx), %rax
	movq	%rax, 216(%rbx)
	movq	%rax, 160(%rsp)                 # 8-byte Spill
	movq	%rax, 208(%rbx)
	movq	$0, 224(%rbx)
	leaq	232(%rbx), %rax
	movq	%rax, 240(%rbx)
	movq	%rax, 152(%rsp)                 # 8-byte Spill
	movq	%rax, 232(%rbx)
	movq	$0, 248(%rbx)
	leaq	264(%rbx), %rax
	movl	$0, 264(%rbx)
	movq	$0, 272(%rbx)
	movq	%rax, 280(%rbx)
	movq	%rax, 288(%rbx)
	movq	$0, 296(%rbx)
	leaq	304(%rbx), %r15
	leaq	320(%rbx), %r14
	movq	%r14, 304(%rbx)
	movq	(%rbx), %r12
	movq	8(%rbx), %r13
	movq	%r13, 56(%rsp)
	movq	%r14, %rax
	cmpq	$16, %r13
	jb	.LBB2_9
# %bb.7:                                # %.noexc6.i
.Ltmp297:
	leaq	56(%rsp), %rsi
	movq	%r15, %rdi
	xorl	%edx, %edx
	callq	_ZNSt7__cxx1112basic_stringIcSt11char_traitsIcESaIcEE9_M_createERmm
.Ltmp298:
# %bb.8:                                # %.noexc36
	movq	%rax, (%r15)
	movq	56(%rsp), %rcx
	movq	%rcx, (%r14)
.LBB2_9:                                # %._crit_edge.i.i.i.i35
	testq	%r13, %r13
	je	.LBB2_13
# %bb.10:                               # %._crit_edge.i.i.i.i35
	cmpq	$1, %r13
	jne	.LBB2_12
# %bb.11:
	movzbl	(%r12), %ecx
	movb	%cl, (%rax)
	jmp	.LBB2_13
.LBB2_12:
	movq	%rax, %rdi
	movq	%r12, %rsi
	movq	%r13, %rdx
	callq	memcpy@PLT
.LBB2_13:
	movq	%r15, 144(%rsp)                 # 8-byte Spill
	movq	56(%rsp), %rax
	movq	%rax, 312(%rbx)
	movq	304(%rbx), %rcx
	movb	$0, (%rcx,%rax)
	leaq	336(%rbx), %r15
	movq	%r15, 344(%rbx)
	movq	%r15, 336(%rbx)
	movq	$0, 352(%rbx)
	leaq	368(%rbx), %rax
	movl	$0, 368(%rbx)
	movq	$0, 376(%rbx)
	movq	%rax, 384(%rbx)
	movq	%rax, 392(%rbx)
	movq	$0, 400(%rbx)
	leaq	416(%rbx), %rax
	movl	$0, 416(%rbx)
	movq	$0, 424(%rbx)
	movq	%rax, 432(%rbx)
	movq	%rax, 440(%rbx)
	xorps	%xmm0, %xmm0
	movups	%xmm0, 448(%rbx)
	movups	%xmm0, 464(%rbx)
	movb	$0, 480(%rbx)
	testb	$1, %bpl
	je	.LBB2_41
# %bb.14:
.Ltmp300:
	movl	$.L.str.27, %esi
	movl	$.L.str.28, %edx
	movq	%rbx, %rdi
	callq	_ZN8argparse14ArgumentParser12add_argumentIJPKcS3_EEERNS_8ArgumentEDpT_
.Ltmp301:
# %bb.15:
	movq	%rax, %r12
	movq	%r14, 16(%rsp)                  # 8-byte Spill
	movq	%rbx, 56(%rsp)
	movq	136(%rsp), %rax                 # 8-byte Reload
	movq	%rax, 64(%rsp)
	leaq	240(%r12), %rdi
.Ltmp302:
	leaq	56(%rsp), %rsi
	callq	_ZNSt7variantIJSt8functionIFSt3anyRKNSt7__cxx1112basic_stringIcSt11char_traitsIcESaIcEEEEES0_IFvS9_EEEE7emplaceILm1EJZN8argparse14ArgumentParserC1ES7_S7_NSG_17default_argumentsEbRSoEUlRKT_E_EEENSt9enable_ifIX18is_constructible_vINSt19variant_alternativeIXT_ESE_E4typeEDpT0_EERSR_E4typeEDpOSS_
.Ltmp303:
# %bb.16:                               # %_ZN8argparse8Argument6actionIZNS_14ArgumentParserC1ENSt7__cxx1112basic_stringIcSt11char_traitsIcESaIcEEES8_NS_17default_argumentsEbRSoEUlRKT_E_JEEENSt9enable_ifIXsr3stdE14is_invocable_vISB_DpT0_KS8_EERS0_E4typeEOSB_DpOSG_.exit
	movl	%ebp, %r14d
	movb	$0, 7(%rsp)
.Ltmp305:
	leaq	7(%rsp), %rsi
	movq	%r12, %rdi
	callq	_ZN8argparse8Argument13default_valueIbEERS0_OT_
.Ltmp306:
# %bb.17:                               # %.noexc8.i38
	movq	%rax, %r13
	leaq	40(%rsp), %rbp
	movq	%rbp, 24(%rsp)
	movq	$28, 8(%rsp)
.Ltmp308:
	leaq	24(%rsp), %rdi
	leaq	8(%rsp), %rsi
	xorl	%edx, %edx
	callq	_ZNSt7__cxx1112basic_stringIcSt11char_traitsIcESaIcEE9_M_createERmm
.Ltmp309:
# %bb.18:                               # %.noexc40
	movq	%r13, %r12
	movq	%rax, 24(%rsp)
	movq	8(%rsp), %rcx
	movq	%rcx, 40(%rsp)
	movups	.L.str.29+12(%rip), %xmm0
	movups	%xmm0, 12(%rax)
	movups	.L.str.29(%rip), %xmm0
	movups	%xmm0, (%rax)
	movq	%rcx, 32(%rsp)
	movq	24(%rsp), %rax
	movb	$0, (%rax,%rcx)
	movq	24(%rsp), %rcx
	cmpq	%rbp, %rcx
	je	.LBB2_22
# %bb.19:
	leaq	56(%r13), %rdx
	movq	40(%r12), %rax
	cmpq	%rdx, %rax
	movl	%r14d, %ebp
	je	.LBB2_25
# %bb.20:
	movq	56(%r12), %rdx
	movq	%rcx, 40(%r12)
	movups	32(%rsp), %xmm0
	movups	%xmm0, 48(%r12)
	testq	%rax, %rax
	movq	16(%rsp), %r14                  # 8-byte Reload
	je	.LBB2_26
# %bb.21:
	movq	%rax, 24(%rsp)
	movq	%rdx, 40(%rsp)
	jmp	.LBB2_29
.LBB2_22:
	movq	32(%rsp), %rdx
	testq	%rdx, %rdx
	movl	%r14d, %ebp
	movq	16(%rsp), %r14                  # 8-byte Reload
	je	.LBB2_28
# %bb.23:
	movq	40(%r12), %rdi
	cmpq	$1, %rdx
	jne	.LBB2_27
# %bb.24:
	movzbl	40(%rsp), %eax
	movb	%al, (%rdi)
	jmp	.LBB2_28
.LBB2_25:                               # %.thread.i.i
	movq	%rcx, 40(%r12)
	movups	32(%rsp), %xmm0
	movups	%xmm0, 48(%r12)
	movq	16(%rsp), %r14                  # 8-byte Reload
.LBB2_26:
	leaq	40(%rsp), %rax
	movq	%rax, 24(%rsp)
	jmp	.LBB2_29
.LBB2_27:
	leaq	40(%rsp), %rsi
	callq	memcpy@PLT
.LBB2_28:                               # %_ZNSt7__cxx1112basic_stringIcSt11char_traitsIcESaIcEE7_S_copyEPcPKcm.exit.i.i
	movq	32(%rsp), %rax
	movq	%rax, 48(%r12)
	movq	40(%r12), %rcx
	movb	$0, (%rcx,%rax)
	movq	24(%rsp), %rax
.LBB2_29:
	movq	$0, 32(%rsp)
	movb	$0, (%rax)
	movq	$_ZNSt3any17_Manager_internalIbE9_S_manageENS_3_OpEPKS_PNS_4_ArgE, 120(%rsp)
	movq	$0, 128(%rsp)
	movb	$1, 128(%rsp)
	addq	$192, %r13
	leaq	120(%rsp), %rax
	cmpq	%rax, %r13
	je	.LBB2_33
# %bb.30:
	movq	(%r13), %rax
	testq	%rax, %rax
	je	.LBB2_34
# %bb.31:
.Ltmp311:
	movl	$3, %edi
	movq	%r13, %rsi
	xorl	%edx, %edx
	callq	*%rax
.Ltmp312:
# %bb.32:
	movq	$0, (%r13)
	movq	120(%rsp), %rcx
	jmp	.LBB2_35
.LBB2_33:                               # %.thread
	xorps	%xmm0, %xmm0
	movups	%xmm0, 304(%r12)
	movl	$_ZNSt3any17_Manager_internalIbE9_S_manageENS_3_OpEPKS_PNS_4_ArgE, %eax
	leaq	40(%rsp), %r12
	jmp	.LBB2_37
.LBB2_34:
	movl	$_ZNSt3any17_Manager_internalIbE9_S_manageENS_3_OpEPKS_PNS_4_ArgE, %ecx
.LBB2_35:                               # %_ZNSt3any5resetEv.exit7.i.i
	movq	%r13, 8(%rsp)
.Ltmp314:
	leaq	120(%rsp), %rsi
	leaq	8(%rsp), %rdx
	movl	$4, %edi
	callq	*%rcx
.Ltmp315:
# %bb.36:
	movq	120(%rsp), %rax
	xorps	%xmm0, %xmm0
	movups	%xmm0, 304(%r12)
	testq	%rax, %rax
	leaq	40(%rsp), %r12
	je	.LBB2_39
.LBB2_37:
.Ltmp317:
	leaq	120(%rsp), %rsi
	movl	$3, %edi
	xorl	%edx, %edx
	callq	*%rax
.Ltmp318:
# %bb.38:
	movq	$0, 120(%rsp)
.LBB2_39:                               # %_ZNSt3anyD2Ev.exit
	movq	24(%rsp), %rdi
	cmpq	%r12, %rdi
	je	.LBB2_41
# %bb.40:
	callq	_ZdlPv
.LBB2_41:
	testb	$2, %bpl
	je	.LBB2_69
# %bb.42:
.Ltmp320:
	movl	$.L.str.30, %esi
	movl	$.L.str.31, %edx
	movq	%rbx, %rdi
	callq	_ZN8argparse14ArgumentParser12add_argumentIJPKcS3_EEERNS_8ArgumentEDpT_
.Ltmp321:
# %bb.43:
	movq	%rax, %r12
	movq	%rbx, 56(%rsp)
	movq	136(%rsp), %rax                 # 8-byte Reload
	movq	%rax, 64(%rsp)
	leaq	240(%r12), %rdi
.Ltmp323:
	leaq	56(%rsp), %rsi
	callq	_ZNSt7variantIJSt8functionIFSt3anyRKNSt7__cxx1112basic_stringIcSt11char_traitsIcESaIcEEEEES0_IFvS9_EEEE7emplaceILm1EJZN8argparse14ArgumentParserC1ES7_S7_NSG_17default_argumentsEbRSoEUlRKT_E0_EEENSt9enable_ifIX18is_constructible_vINSt19variant_alternativeIXT_ESE_E4typeEDpT0_EERSR_E4typeEDpOSS_
.Ltmp324:
# %bb.44:                               # %_ZN8argparse8Argument6actionIZNS_14ArgumentParserC1ENSt7__cxx1112basic_stringIcSt11char_traitsIcESaIcEEES8_NS_17default_argumentsEbRSoEUlRKT_E0_JEEENSt9enable_ifIXsr3stdE14is_invocable_vISB_DpT0_KS8_EERS0_E4typeEOSB_DpOSG_.exit
	movb	$0, 7(%rsp)
.Ltmp326:
	leaq	7(%rsp), %rsi
	movq	%r12, %rdi
	callq	_ZN8argparse8Argument13default_valueIbEERS0_OT_
.Ltmp327:
# %bb.45:                               # %.noexc8.i47
	movq	%rax, %r13
	leaq	104(%rsp), %r12
	movq	%r12, 88(%rsp)
	movq	$36, 8(%rsp)
.Ltmp329:
	leaq	88(%rsp), %rdi
	leaq	8(%rsp), %rsi
	xorl	%edx, %edx
	callq	_ZNSt7__cxx1112basic_stringIcSt11char_traitsIcESaIcEE9_M_createERmm
.Ltmp330:
# %bb.46:                               # %.noexc49
	movq	%r13, %rbx
	movq	%rax, 88(%rsp)
	movq	8(%rsp), %rcx
	movq	%rcx, 104(%rsp)
	movups	.L.str.32+16(%rip), %xmm0
	movups	%xmm0, 16(%rax)
	movups	.L.str.32(%rip), %xmm0
	movups	%xmm0, (%rax)
	movl	$1937009016, 32(%rax)           # imm = 0x73746978
	movq	%rcx, 96(%rsp)
	movb	$0, (%rax,%rcx)
	movq	88(%rsp), %rcx
	cmpq	%r12, %rcx
	je	.LBB2_50
# %bb.47:
	leaq	56(%r13), %rdx
	movq	40(%rbx), %rax
	cmpq	%rdx, %rax
	je	.LBB2_53
# %bb.48:
	movq	56(%rbx), %rdx
	movq	%rcx, 40(%rbx)
	movups	96(%rsp), %xmm0
	movups	%xmm0, 48(%rbx)
	testq	%rax, %rax
	je	.LBB2_54
# %bb.49:
	movq	%rax, 88(%rsp)
	movq	%rdx, 104(%rsp)
	jmp	.LBB2_57
.LBB2_50:
	movq	96(%rsp), %rdx
	testq	%rdx, %rdx
	je	.LBB2_56
# %bb.51:
	movq	40(%rbx), %rdi
	cmpq	$1, %rdx
	jne	.LBB2_55
# %bb.52:
	movzbl	104(%rsp), %eax
	movb	%al, (%rdi)
	jmp	.LBB2_56
.LBB2_53:                               # %.thread.i.i55
	movq	%rcx, 40(%rbx)
	movups	96(%rsp), %xmm0
	movups	%xmm0, 48(%rbx)
.LBB2_54:
	movq	%r12, 88(%rsp)
	movq	%r12, %rax
	jmp	.LBB2_57
.LBB2_55:
	movq	%r12, %rsi
	callq	memcpy@PLT
.LBB2_56:                               # %_ZNSt7__cxx1112basic_stringIcSt11char_traitsIcESaIcEE7_S_copyEPcPKcm.exit.i.i54
	movq	96(%rsp), %rax
	movq	%rax, 48(%rbx)
	movq	40(%rbx), %rcx
	movb	$0, (%rcx,%rax)
	movq	88(%rsp), %rax
.LBB2_57:
	movq	$0, 96(%rsp)
	movb	$0, (%rax)
	movq	$_ZNSt3any17_Manager_internalIbE9_S_manageENS_3_OpEPKS_PNS_4_ArgE, 72(%rsp)
	movq	$0, 80(%rsp)
	movb	$1, 80(%rsp)
	addq	$192, %r13
	leaq	72(%rsp), %rax
	cmpq	%rax, %r13
	je	.LBB2_61
# %bb.58:
	movq	(%r13), %rax
	testq	%rax, %rax
	je	.LBB2_62
# %bb.59:
.Ltmp332:
	movl	$3, %edi
	movq	%r13, %rsi
	xorl	%edx, %edx
	callq	*%rax
.Ltmp333:
# %bb.60:
	movq	$0, (%r13)
	movq	72(%rsp), %rcx
	jmp	.LBB2_63
.LBB2_61:                               # %.thread91
	xorps	%xmm0, %xmm0
	movups	%xmm0, 304(%rbx)
	movl	$_ZNSt3any17_Manager_internalIbE9_S_manageENS_3_OpEPKS_PNS_4_ArgE, %eax
	jmp	.LBB2_65
.LBB2_62:
	movl	$_ZNSt3any17_Manager_internalIbE9_S_manageENS_3_OpEPKS_PNS_4_ArgE, %ecx
.LBB2_63:                               # %_ZNSt3any5resetEv.exit7.i.i63
	movq	%r13, 8(%rsp)
.Ltmp335:
	leaq	72(%rsp), %rsi
	leaq	8(%rsp), %rdx
	movl	$4, %edi
	callq	*%rcx
.Ltmp336:
# %bb.64:
	movq	72(%rsp), %rax
	xorps	%xmm0, %xmm0
	movups	%xmm0, 304(%rbx)
	testq	%rax, %rax
	je	.LBB2_67
.LBB2_65:
.Ltmp338:
	leaq	72(%rsp), %rsi
	movl	$3, %edi
	xorl	%edx, %edx
	callq	*%rax
.Ltmp339:
# %bb.66:
	movq	$0, 72(%rsp)
.LBB2_67:                               # %_ZNSt3anyD2Ev.exit67
	movq	88(%rsp), %rdi
	cmpq	%r12, %rdi
	je	.LBB2_69
# %bb.68:
	callq	_ZdlPv
.LBB2_69:
	addq	$216, %rsp
	.cfi_def_cfa_offset 56
	popq	%rbx
	.cfi_def_cfa_offset 48
	popq	%r12
	.cfi_def_cfa_offset 40
	popq	%r13
	.cfi_def_cfa_offset 32
	popq	%r14
	.cfi_def_cfa_offset 24
	popq	%r15
	.cfi_def_cfa_offset 16
	popq	%rbp
	.cfi_def_cfa_offset 8
	retq
.LBB2_70:
	.cfi_def_cfa_offset 272
.Ltmp334:
	movq	%rax, %rdi
	callq	__clang_call_terminate
.LBB2_71:
.Ltmp313:
	movq	%rax, %rdi
	callq	__clang_call_terminate
.LBB2_72:
.Ltmp337:
	movq	%rax, %rdi
	callq	__clang_call_terminate
.LBB2_73:
.Ltmp316:
	movq	%rax, %rdi
	callq	__clang_call_terminate
.LBB2_74:
.Ltmp340:
	movq	%rax, %rdi
	callq	__clang_call_terminate
.LBB2_75:
.Ltmp319:
	movq	%rax, %rdi
	callq	__clang_call_terminate
.LBB2_76:
.Ltmp331:
	jmp	.LBB2_84
.LBB2_77:
.Ltmp328:
	jmp	.LBB2_84
.LBB2_78:
.Ltmp325:
	jmp	.LBB2_84
.LBB2_79:
.Ltmp310:
	jmp	.LBB2_85
.LBB2_80:
.Ltmp307:
	jmp	.LBB2_85
.LBB2_81:
.Ltmp304:
	jmp	.LBB2_85
.LBB2_82:
.Ltmp299:
	movq	%rax, %r12
	jmp	.LBB2_89
.LBB2_83:
.Ltmp322:
.LBB2_84:
	movq	%r14, 16(%rsp)                  # 8-byte Spill
.LBB2_85:
	movq	%rax, %r12
	leaq	360(%rbx), %r13
	leaq	408(%rbx), %rbp
	leaq	456(%rbx), %rdi
	callq	_ZNSt6vectorIN8argparse14ArgumentParser22MutuallyExclusiveGroupESaIS2_EED2Ev
	movq	%rbp, %rdi
	callq	_ZNSt3mapISt17basic_string_viewIcSt11char_traitsIcEEbSt4lessIS3_ESaISt4pairIKS3_bEEED2Ev
	movq	%r13, %rdi
	callq	_ZNSt3mapISt17basic_string_viewIcSt11char_traitsIcEESt14_List_iteratorISt17reference_wrapperIN8argparse14ArgumentParserEEESt4lessIS3_ESaISt4pairIKS3_S9_EEED2Ev
	movq	(%r15), %rdi
	cmpq	%r15, %rdi
	je	.LBB2_87
	.p2align	4, 0x90
.LBB2_86:                               # %.lr.ph.i.i
                                        # =>This Inner Loop Header: Depth=1
	movq	(%rdi), %r13
	callq	_ZdlPv
	movq	%r13, %rdi
	cmpq	%r15, %r13
	jne	.LBB2_86
.LBB2_87:                               # %_ZNSt7__cxx1110_List_baseISt17reference_wrapperIN8argparse14ArgumentParserEESaIS4_EED2Ev.exit
	movq	144(%rsp), %rax                 # 8-byte Reload
	movq	(%rax), %rdi
	cmpq	16(%rsp), %rdi                  # 8-byte Folded Reload
	je	.LBB2_89
# %bb.88:
	callq	_ZdlPv
.LBB2_89:                               # %_ZNSt7__cxx1112basic_stringIcSt11char_traitsIcESaIcEED2Ev.exit72
	leaq	256(%rbx), %rdi
	callq	_ZNSt3mapISt17basic_string_viewIcSt11char_traitsIcEESt14_List_iteratorIN8argparse8ArgumentEESt4lessIS3_ESaISt4pairIKS3_S7_EEED2Ev
	movq	152(%rsp), %rdi                 # 8-byte Reload
	callq	_ZNSt7__cxx1110_List_baseIN8argparse8ArgumentESaIS2_EED2Ev
	movq	160(%rsp), %rdi                 # 8-byte Reload
	callq	_ZNSt7__cxx1110_List_baseIN8argparse8ArgumentESaIS2_EED2Ev
	movq	168(%rbx), %rdi
	cmpq	168(%rsp), %rdi                 # 8-byte Folded Reload
	jne	.LBB2_96
# %bb.90:                               # %_ZNSt7__cxx1112basic_stringIcSt11char_traitsIcESaIcEED2Ev.exit73
	movq	136(%rbx), %rdi
	cmpq	176(%rsp), %rdi                 # 8-byte Folded Reload
	jne	.LBB2_97
.LBB2_91:                               # %_ZNSt7__cxx1112basic_stringIcSt11char_traitsIcESaIcEED2Ev.exit74
	movq	96(%rbx), %rdi
	cmpq	184(%rsp), %rdi                 # 8-byte Folded Reload
	jne	.LBB2_98
.LBB2_92:                               # %_ZNSt7__cxx1112basic_stringIcSt11char_traitsIcESaIcEED2Ev.exit75
	movq	64(%rbx), %rdi
	cmpq	192(%rsp), %rdi                 # 8-byte Folded Reload
	jne	.LBB2_99
.LBB2_93:                               # %_ZNSt7__cxx1112basic_stringIcSt11char_traitsIcESaIcEED2Ev.exit76
	movq	32(%rbx), %rdi
	cmpq	200(%rsp), %rdi                 # 8-byte Folded Reload
	jne	.LBB2_100
.LBB2_94:                               # %_ZNSt7__cxx1112basic_stringIcSt11char_traitsIcESaIcEED2Ev.exit77
	movq	(%rbx), %rdi
	cmpq	208(%rsp), %rdi                 # 8-byte Folded Reload
	jne	.LBB2_101
.LBB2_95:                               # %_ZNSt7__cxx1112basic_stringIcSt11char_traitsIcESaIcEED2Ev.exit78
	movq	%r12, %rdi
	callq	_Unwind_Resume@PLT
.LBB2_96:
	callq	_ZdlPv
	movq	136(%rbx), %rdi
	cmpq	176(%rsp), %rdi                 # 8-byte Folded Reload
	je	.LBB2_91
.LBB2_97:
	callq	_ZdlPv
	movq	96(%rbx), %rdi
	cmpq	184(%rsp), %rdi                 # 8-byte Folded Reload
	je	.LBB2_92
.LBB2_98:
	callq	_ZdlPv
	movq	64(%rbx), %rdi
	cmpq	192(%rsp), %rdi                 # 8-byte Folded Reload
	je	.LBB2_93
.LBB2_99:
	callq	_ZdlPv
	movq	32(%rbx), %rdi
	cmpq	200(%rsp), %rdi                 # 8-byte Folded Reload
	je	.LBB2_94
.LBB2_100:
	callq	_ZdlPv
	movq	(%rbx), %rdi
	cmpq	208(%rsp), %rdi                 # 8-byte Folded Reload
	je	.LBB2_95
.LBB2_101:
	callq	_ZdlPv
	movq	%r12, %rdi
	callq	_Unwind_Resume@PLT
.Lfunc_end2:
	.size	_ZN8argparse14ArgumentParserC2ENSt7__cxx1112basic_stringIcSt11char_traitsIcESaIcEEES6_NS_17default_argumentsEbRSo, .Lfunc_end2-_ZN8argparse14ArgumentParserC2ENSt7__cxx1112basic_stringIcSt11char_traitsIcESaIcEEES6_NS_17default_argumentsEbRSo
	.cfi_endproc
	.section	.gcc_except_table._ZN8argparse14ArgumentParserC2ENSt7__cxx1112basic_stringIcSt11char_traitsIcESaIcEEES6_NS_17default_argumentsEbRSo,"aG",@progbits,_ZN8argparse14ArgumentParserC2ENSt7__cxx1112basic_stringIcSt11char_traitsIcESaIcEEES6_NS_17default_argumentsEbRSo,comdat
	.p2align	2, 0x0
GCC_except_table2:
.Lexception1:
	.byte	255                             # @LPStart Encoding = omit
	.byte	3                               # @TType Encoding = udata4
	.uleb128 .Lttbase1-.Lttbaseref1
.Lttbaseref1:
	.byte	1                               # Call site Encoding = uleb128
	.uleb128 .Lcst_end1-.Lcst_begin1
.Lcst_begin1:
	.uleb128 .Ltmp297-.Lfunc_begin1         # >> Call Site 1 <<
	.uleb128 .Ltmp298-.Ltmp297              #   Call between .Ltmp297 and .Ltmp298
	.uleb128 .Ltmp299-.Lfunc_begin1         #     jumps to .Ltmp299
	.byte	0                               #   On action: cleanup
	.uleb128 .Ltmp298-.Lfunc_begin1         # >> Call Site 2 <<
	.uleb128 .Ltmp300-.Ltmp298              #   Call between .Ltmp298 and .Ltmp300
	.byte	0                               #     has no landing pad
	.byte	0                               #   On action: cleanup
	.uleb128 .Ltmp300-.Lfunc_begin1         # >> Call Site 3 <<
	.uleb128 .Ltmp301-.Ltmp300              #   Call between .Ltmp300 and .Ltmp301
	.uleb128 .Ltmp322-.Lfunc_begin1         #     jumps to .Ltmp322
	.byte	0                               #   On action: cleanup
	.uleb128 .Ltmp302-.Lfunc_begin1         # >> Call Site 4 <<
	.uleb128 .Ltmp303-.Ltmp302              #   Call between .Ltmp302 and .Ltmp303
	.uleb128 .Ltmp304-.Lfunc_begin1         #     jumps to .Ltmp304
	.byte	0                               #   On action: cleanup
	.uleb128 .Ltmp305-.Lfunc_begin1         # >> Call Site 5 <<
	.uleb128 .Ltmp306-.Ltmp305              #   Call between .Ltmp305 and .Ltmp306
	.uleb128 .Ltmp307-.Lfunc_begin1         #     jumps to .Ltmp307
	.byte	0                               #   On action: cleanup
	.uleb128 .Ltmp308-.Lfunc_begin1         # >> Call Site 6 <<
	.uleb128 .Ltmp309-.Ltmp308              #   Call between .Ltmp308 and .Ltmp309
	.uleb128 .Ltmp310-.Lfunc_begin1         #     jumps to .Ltmp310
	.byte	0                               #   On action: cleanup
	.uleb128 .Ltmp309-.Lfunc_begin1         # >> Call Site 7 <<
	.uleb128 .Ltmp311-.Ltmp309              #   Call between .Ltmp309 and .Ltmp311
	.byte	0                               #     has no landing pad
	.byte	0                               #   On action: cleanup
	.uleb128 .Ltmp311-.Lfunc_begin1         # >> Call Site 8 <<
	.uleb128 .Ltmp312-.Ltmp311              #   Call between .Ltmp311 and .Ltmp312
	.uleb128 .Ltmp313-.Lfunc_begin1         #     jumps to .Ltmp313
	.byte	1                               #   On action: 1
	.uleb128 .Ltmp314-.Lfunc_begin1         # >> Call Site 9 <<
	.uleb128 .Ltmp315-.Ltmp314              #   Call between .Ltmp314 and .Ltmp315
	.uleb128 .Ltmp316-.Lfunc_begin1         #     jumps to .Ltmp316
	.byte	1                               #   On action: 1
	.uleb128 .Ltmp317-.Lfunc_begin1         # >> Call Site 10 <<
	.uleb128 .Ltmp318-.Ltmp317              #   Call between .Ltmp317 and .Ltmp318
	.uleb128 .Ltmp319-.Lfunc_begin1         #     jumps to .Ltmp319
	.byte	1                               #   On action: 1
	.uleb128 .Ltmp320-.Lfunc_begin1         # >> Call Site 11 <<
	.uleb128 .Ltmp321-.Ltmp320              #   Call between .Ltmp320 and .Ltmp321
	.uleb128 .Ltmp322-.Lfunc_begin1         #     jumps to .Ltmp322
	.byte	0                               #   On action: cleanup
	.uleb128 .Ltmp323-.Lfunc_begin1         # >> Call Site 12 <<
	.uleb128 .Ltmp324-.Ltmp323              #   Call between .Ltmp323 and .Ltmp324
	.uleb128 .Ltmp325-.Lfunc_begin1         #     jumps to .Ltmp325
	.byte	0                               #   On action: cleanup
	.uleb128 .Ltmp326-.Lfunc_begin1         # >> Call Site 13 <<
	.uleb128 .Ltmp327-.Ltmp326              #   Call between .Ltmp326 and .Ltmp327
	.uleb128 .Ltmp328-.Lfunc_begin1         #     jumps to .Ltmp328
	.byte	0                               #   On action: cleanup
	.uleb128 .Ltmp329-.Lfunc_begin1         # >> Call Site 14 <<
	.uleb128 .Ltmp330-.Ltmp329              #   Call between .Ltmp329 and .Ltmp330
	.uleb128 .Ltmp331-.Lfunc_begin1         #     jumps to .Ltmp331
	.byte	0                               #   On action: cleanup
	.uleb128 .Ltmp330-.Lfunc_begin1         # >> Call Site 15 <<
	.uleb128 .Ltmp332-.Ltmp330              #   Call between .Ltmp330 and .Ltmp332
	.byte	0                               #     has no landing pad
	.byte	0                               #   On action: cleanup
	.uleb128 .Ltmp332-.Lfunc_begin1         # >> Call Site 16 <<
	.uleb128 .Ltmp333-.Ltmp332              #   Call between .Ltmp332 and .Ltmp333
	.uleb128 .Ltmp334-.Lfunc_begin1         #     jumps to .Ltmp334
	.byte	1                               #   On action: 1
	.uleb128 .Ltmp335-.Lfunc_begin1         # >> Call Site 17 <<
	.uleb128 .Ltmp336-.Ltmp335              #   Call between .Ltmp335 and .Ltmp336
	.uleb128 .Ltmp337-.Lfunc_begin1         #     jumps to .Ltmp337
	.byte	1                               #   On action: 1
	.uleb128 .Ltmp338-.Lfunc_begin1         # >> Call Site 18 <<
	.uleb128 .Ltmp339-.Ltmp338              #   Call between .Ltmp338 and .Ltmp339
	.uleb128 .Ltmp340-.Lfunc_begin1         #     jumps to .Ltmp340
	.byte	1                               #   On action: 1
	.uleb128 .Ltmp339-.Lfunc_begin1         # >> Call Site 19 <<
	.uleb128 .Lfunc_end2-.Ltmp339           #   Call between .Ltmp339 and .Lfunc_end2
	.byte	0                               #     has no landing pad
	.byte	0                               #   On action: cleanup
.Lcst_end1:
	.byte	1                               # >> Action Record 1 <<
                                        #   Catch TypeInfo 1
	.byte	0                               #   No further actions
	.p2align	2, 0x0
                                        # >> Catch TypeInfos <<
	.long	0                               # TypeInfo 1
.Lttbase1:
	.p2align	2, 0x0
                                        # -- End function
	.section	.text._ZN8argparselsERSoRKNS_14ArgumentParserE,"axG",@progbits,_ZN8argparselsERSoRKNS_14ArgumentParserE,comdat
	.weak	_ZN8argparselsERSoRKNS_14ArgumentParserE # -- Begin function _ZN8argparselsERSoRKNS_14ArgumentParserE
	.p2align	4, 0x90
	.type	_ZN8argparselsERSoRKNS_14ArgumentParserE,@function
_ZN8argparselsERSoRKNS_14ArgumentParserE: # @_ZN8argparselsERSoRKNS_14ArgumentParserE
.Lfunc_begin2:
	.cfi_startproc
	.cfi_personality 3, __gxx_personality_v0
	.cfi_lsda 3, .Lexception2
# %bb.0:
	pushq	%rbp
	.cfi_def_cfa_offset 16
	pushq	%r15
	.cfi_def_cfa_offset 24
	pushq	%r14
	.cfi_def_cfa_offset 32
	pushq	%r13
	.cfi_def_cfa_offset 40
	pushq	%r12
	.cfi_def_cfa_offset 48
	pushq	%rbx
	.cfi_def_cfa_offset 56
	subq	$40, %rsp
	.cfi_def_cfa_offset 96
	.cfi_offset %rbx, -56
	.cfi_offset %r12, -48
	.cfi_offset %r13, -40
	.cfi_offset %r14, -32
	.cfi_offset %r15, -24
	.cfi_offset %rbp, -16
	movq	%rdi, %rbx
	movq	(%rdi), %rax
	movq	-24(%rax), %rax
	orl	$32, 24(%rdi,%rax)
	movq	%rsi, %r14
	cmpq	$0, 296(%rsi)
	je	.LBB3_1
# %bb.2:
	leaq	264(%r14), %r13
	movq	280(%r14), %r12
	cmpq	%r13, %r12
	je	.LBB3_3
# %bb.23:                               # %.lr.ph.i.preheader
	xorl	%ebp, %ebp
	.p2align	4, 0x90
.LBB3_24:                               # %.lr.ph.i
                                        # =>This Inner Loop Header: Depth=1
	movq	48(%r12), %rdi
	addq	$16, %rdi
	callq	_ZNK8argparse8Argument20get_arguments_lengthEv
	movq	%rax, %r15
	cmpq	%rax, %rbp
	cmovaq	%rbp, %r15
	movq	%r12, %rdi
	callq	_ZSt18_Rb_tree_incrementPKSt18_Rb_tree_node_base
	movq	%rax, %r12
	movq	%r15, %rbp
	cmpq	%r13, %rax
	jne	.LBB3_24
	jmp	.LBB3_4
.LBB3_1:
	xorl	%r15d, %r15d
.LBB3_7:                                # %_ZNK8argparse14ArgumentParser30get_length_of_longest_argumentEv.exit
	leaq	8(%rsp), %rdi
	movq	%r14, %rsi
	callq	_ZNK8argparse14ArgumentParser5usageB5cxx11Ev
	movq	8(%rsp), %rsi
	movq	16(%rsp), %rdx
.Ltmp341:
	movq	%rbx, %rdi
	callq	_ZSt16__ostream_insertIcSt11char_traitsIcEERSt13basic_ostreamIT_T0_ES6_PKS3_l
.Ltmp342:
# %bb.8:                                # %_ZStlsIcSt11char_traitsIcESaIcEERSt13basic_ostreamIT_T0_ES7_RKNSt7__cxx1112basic_stringIS4_S5_T1_EE.exit
.Ltmp343:
	movl	$.L.str.83, %esi
	movl	$2, %edx
	movq	%rax, %rdi
	callq	_ZSt16__ostream_insertIcSt11char_traitsIcEERSt13basic_ostreamIT_T0_ES6_PKS3_l
.Ltmp344:
# %bb.9:                                # %_ZStlsISt11char_traitsIcEERSt13basic_ostreamIcT_ES5_PKc.exit
	movq	8(%rsp), %rdi
	leaq	24(%rsp), %rax
	cmpq	%rax, %rdi
	je	.LBB3_11
# %bb.10:
	callq	_ZdlPv
.LBB3_11:                               # %_ZNSt7__cxx1112basic_stringIcSt11char_traitsIcESaIcEED2Ev.exit
	movq	72(%r14), %rdx
	testq	%rdx, %rdx
	je	.LBB3_13
# %bb.12:
	movq	64(%r14), %rsi
	movq	%rbx, %rdi
	callq	_ZSt16__ostream_insertIcSt11char_traitsIcEERSt13basic_ostreamIT_T0_ES6_PKS3_l
	movl	$.L.str.83, %esi
	movl	$2, %edx
	movq	%rax, %rdi
	callq	_ZSt16__ostream_insertIcSt11char_traitsIcEERSt13basic_ostreamIT_T0_ES6_PKS3_l
.LBB3_13:
	leaq	208(%r14), %r12
	cmpq	%r12, 208(%r14)
	je	.LBB3_16
# %bb.14:
	movl	$.L.str.84, %esi
	movl	$22, %edx
	movq	%rbx, %rdi
	callq	_ZSt16__ostream_insertIcSt11char_traitsIcEERSt13basic_ostreamIT_T0_ES6_PKS3_l
	movq	(%r12), %r13
	cmpq	%r12, %r13
	je	.LBB3_16
	.p2align	4, 0x90
.LBB3_28:                               # %.lr.ph
                                        # =>This Inner Loop Header: Depth=1
	leaq	16(%r13), %rsi
	movq	(%rbx), %rax
	movq	-24(%rax), %rax
	movq	%r15, 16(%rbx,%rax)
	movq	%rbx, %rdi
	callq	_ZN8argparselsERSoRKNS_8ArgumentE
	movq	(%r13), %r13
	cmpq	%r12, %r13
	jne	.LBB3_28
.LBB3_16:                               # %._crit_edge
	leaq	232(%r14), %rbp
	cmpq	%rbp, 232(%r14)
	je	.LBB3_19
# %bb.17:
	xorl	%edx, %edx
	cmpq	%r12, (%r12)
	setne	%dl
	movl	$.L.str.22, %eax
	movl	$.L.str.68, %esi
	cmovneq	%rax, %rsi
	movq	%rbx, %rdi
	callq	_ZSt16__ostream_insertIcSt11char_traitsIcEERSt13basic_ostreamIT_T0_ES6_PKS3_l
	movl	$.L.str.85, %esi
	movl	$20, %edx
	movq	%rbx, %rdi
	callq	_ZSt16__ostream_insertIcSt11char_traitsIcEERSt13basic_ostreamIT_T0_ES6_PKS3_l
	movq	(%rbp), %r13
	cmpq	%rbp, %r13
	je	.LBB3_19
	.p2align	4, 0x90
.LBB3_29:                               # %.lr.ph83
                                        # =>This Inner Loop Header: Depth=1
	leaq	16(%r13), %rsi
	movq	(%rbx), %rax
	movq	-24(%rax), %rax
	movq	%r15, 16(%rbx,%rax)
	movq	%rbx, %rdi
	callq	_ZN8argparselsERSoRKNS_8ArgumentE
	movq	(%r13), %r13
	cmpq	%rbp, %r13
	jne	.LBB3_29
.LBB3_19:                               # %._crit_edge84
	leaq	368(%r14), %r13
	movq	384(%r14), %rax
	cmpq	%r13, %rax
	je	.LBB3_36
	.p2align	4, 0x90
.LBB3_21:                               # %.lr.ph.i.i.i.i.i
                                        # =>This Inner Loop Header: Depth=1
	movq	48(%rax), %rcx
	movq	16(%rcx), %rcx
	cmpb	$0, 480(%rcx)
	je	.LBB3_30
# %bb.22:                               #   in Loop: Header=BB3_21 Depth=1
	movq	%rax, %rdi
	callq	_ZSt18_Rb_tree_incrementPKSt18_Rb_tree_node_base
	cmpq	%r13, %rax
	jne	.LBB3_21
.LBB3_36:                               # %_ZSt6any_ofISt23_Rb_tree_const_iteratorISt4pairIKSt17basic_string_viewIcSt11char_traitsIcEESt14_List_iteratorISt17reference_wrapperIN8argparse14ArgumentParserEEEEEZNS9_lsERSoRKSA_EUlRT_E_EbSI_SI_T0_.exit.thread
	cmpq	$0, 104(%r14)
	je	.LBB3_38
# %bb.37:
	movb	$10, 8(%rsp)
	leaq	8(%rsp), %rsi
	movl	$1, %edx
	movq	%rbx, %rdi
	callq	_ZSt16__ostream_insertIcSt11char_traitsIcEERSt13basic_ostreamIT_T0_ES6_PKS3_l
	movq	96(%r14), %rsi
	movq	104(%r14), %rdx
	movq	%rbx, %rdi
	callq	_ZSt16__ostream_insertIcSt11char_traitsIcEERSt13basic_ostreamIT_T0_ES6_PKS3_l
	movl	$.L.str.83, %esi
	movl	$2, %edx
	movq	%rax, %rdi
	callq	_ZSt16__ostream_insertIcSt11char_traitsIcEERSt13basic_ostreamIT_T0_ES6_PKS3_l
.LBB3_38:
	movq	%rbx, %rax
	addq	$40, %rsp
	.cfi_def_cfa_offset 56
	popq	%rbx
	.cfi_def_cfa_offset 48
	popq	%r12
	.cfi_def_cfa_offset 40
	popq	%r13
	.cfi_def_cfa_offset 32
	popq	%r14
	.cfi_def_cfa_offset 24
	popq	%r15
	.cfi_def_cfa_offset 16
	popq	%rbp
	.cfi_def_cfa_offset 8
	retq
.LBB3_30:                               # %_ZSt6any_ofISt23_Rb_tree_const_iteratorISt4pairIKSt17basic_string_viewIcSt11char_traitsIcEESt14_List_iteratorISt17reference_wrapperIN8argparse14ArgumentParserEEEEEZNS9_lsERSoRKSA_EUlRT_E_EbSI_SI_T0_.exit
	.cfi_def_cfa_offset 96
	cmpq	%r13, %rax
	je	.LBB3_36
# %bb.31:
	xorq	208(%r14), %r12
	xorq	232(%r14), %rbp
	xorl	%edx, %edx
	orq	%r12, %rbp
	setne	%dl
	movl	$.L.str.22, %eax
	movl	$.L.str.68, %esi
	cmovneq	%rax, %rsi
	movq	%rbx, %rdi
	callq	_ZSt16__ostream_insertIcSt11char_traitsIcEERSt13basic_ostreamIT_T0_ES6_PKS3_l
	movl	$.L.str.86, %esi
	movl	$13, %edx
	movq	%rbx, %rdi
	callq	_ZSt16__ostream_insertIcSt11char_traitsIcEERSt13basic_ostreamIT_T0_ES6_PKS3_l
	movq	384(%r14), %r12
	cmpq	%r13, %r12
	je	.LBB3_36
# %bb.32:                               # %.lr.ph88
	addl	$-2, %r15d
	movslq	%r15d, %r15
	jmp	.LBB3_33
	.p2align	4, 0x90
.LBB3_35:                               #   in Loop: Header=BB3_33 Depth=1
	movq	%r12, %rdi
	callq	_ZSt18_Rb_tree_incrementPKSt18_Rb_tree_node_base
	movq	%rax, %r12
	cmpq	%r13, %rax
	je	.LBB3_36
.LBB3_33:                               # =>This Inner Loop Header: Depth=1
	movq	48(%r12), %rax
	movq	16(%rax), %rax
	cmpb	$0, 480(%rax)
	jne	.LBB3_35
# %bb.34:                               #   in Loop: Header=BB3_33 Depth=1
	movq	(%rbx), %rax
	movq	-24(%rax), %rax
	movq	$2, 16(%rbx,%rax)
	movl	$.L.str.81, %esi
	movl	$1, %edx
	movq	%rbx, %rdi
	callq	_ZSt16__ostream_insertIcSt11char_traitsIcEERSt13basic_ostreamIT_T0_ES6_PKS3_l
	movq	(%rbx), %rax
	movq	-24(%rax), %rax
	movq	%r15, 16(%rbx,%rax)
	movq	32(%r12), %rdx
	movq	40(%r12), %rsi
	movq	%rbx, %rdi
	callq	_ZSt16__ostream_insertIcSt11char_traitsIcEERSt13basic_ostreamIT_T0_ES6_PKS3_l
	movl	$.L.str.81, %esi
	movl	$1, %edx
	movq	%rbx, %rdi
	callq	_ZSt16__ostream_insertIcSt11char_traitsIcEERSt13basic_ostreamIT_T0_ES6_PKS3_l
	movq	48(%r12), %rax
	movq	16(%rax), %rax
	movq	64(%rax), %rsi
	movq	72(%rax), %rdx
	movq	%rbx, %rdi
	callq	_ZSt16__ostream_insertIcSt11char_traitsIcEERSt13basic_ostreamIT_T0_ES6_PKS3_l
	movl	$.L.str.22, %esi
	movl	$1, %edx
	movq	%rax, %rdi
	callq	_ZSt16__ostream_insertIcSt11char_traitsIcEERSt13basic_ostreamIT_T0_ES6_PKS3_l
	jmp	.LBB3_35
.LBB3_3:
	xorl	%r15d, %r15d
.LBB3_4:                                # %._crit_edge.i
	leaq	368(%r14), %r12
	movq	384(%r14), %rax
	cmpq	%r12, %rax
	je	.LBB3_7
	.p2align	4, 0x90
.LBB3_5:                                # %.lr.ph37.i
                                        # =>This Inner Loop Header: Depth=1
	movq	32(%rax), %rcx
	cmpq	%rcx, %r15
	cmovbeq	%rcx, %r15
	movq	%rax, %rdi
	callq	_ZSt18_Rb_tree_incrementPKSt18_Rb_tree_node_base
	cmpq	%r12, %rax
	jne	.LBB3_5
	jmp	.LBB3_7
.LBB3_25:
.Ltmp345:
	movq	%rax, %rbx
	movq	8(%rsp), %rdi
	leaq	24(%rsp), %rax
	cmpq	%rax, %rdi
	je	.LBB3_27
# %bb.26:
	callq	_ZdlPv
.LBB3_27:                               # %_ZNSt7__cxx1112basic_stringIcSt11char_traitsIcESaIcEED2Ev.exit54
	movq	%rbx, %rdi
	callq	_Unwind_Resume@PLT
.Lfunc_end3:
	.size	_ZN8argparselsERSoRKNS_14ArgumentParserE, .Lfunc_end3-_ZN8argparselsERSoRKNS_14ArgumentParserE
	.cfi_endproc
	.section	.gcc_except_table._ZN8argparselsERSoRKNS_14ArgumentParserE,"aG",@progbits,_ZN8argparselsERSoRKNS_14ArgumentParserE,comdat
	.p2align	2, 0x0
GCC_except_table3:
.Lexception2:
	.byte	255                             # @LPStart Encoding = omit
	.byte	255                             # @TType Encoding = omit
	.byte	1                               # Call site Encoding = uleb128
	.uleb128 .Lcst_end2-.Lcst_begin2
.Lcst_begin2:
	.uleb128 .Lfunc_begin2-.Lfunc_begin2    # >> Call Site 1 <<
	.uleb128 .Ltmp341-.Lfunc_begin2         #   Call between .Lfunc_begin2 and .Ltmp341
	.byte	0                               #     has no landing pad
	.byte	0                               #   On action: cleanup
	.uleb128 .Ltmp341-.Lfunc_begin2         # >> Call Site 2 <<
	.uleb128 .Ltmp344-.Ltmp341              #   Call between .Ltmp341 and .Ltmp344
	.uleb128 .Ltmp345-.Lfunc_begin2         #     jumps to .Ltmp345
	.byte	0                               #   On action: cleanup
	.uleb128 .Ltmp344-.Lfunc_begin2         # >> Call Site 3 <<
	.uleb128 .Lfunc_end3-.Ltmp344           #   Call between .Ltmp344 and .Lfunc_end3
	.byte	0                               #     has no landing pad
	.byte	0                               #   On action: cleanup
.Lcst_end2:
	.p2align	2, 0x0
                                        # -- End function
	.section	.text.__clang_call_terminate,"axG",@progbits,__clang_call_terminate,comdat
	.hidden	__clang_call_terminate          # -- Begin function __clang_call_terminate
	.weak	__clang_call_terminate
	.p2align	4, 0x90
	.type	__clang_call_terminate,@function
__clang_call_terminate:                 # @__clang_call_terminate
# %bb.0:
	pushq	%rax
	callq	__cxa_begin_catch
	callq	_ZSt9terminatev
.Lfunc_end4:
	.size	__clang_call_terminate, .Lfunc_end4-__clang_call_terminate
                                        # -- End function
	.section	.text._ZN8argparse14ArgumentParserD2Ev,"axG",@progbits,_ZN8argparse14ArgumentParserD2Ev,comdat
	.weak	_ZN8argparse14ArgumentParserD2Ev # -- Begin function _ZN8argparse14ArgumentParserD2Ev
	.p2align	4, 0x90
	.type	_ZN8argparse14ArgumentParserD2Ev,@function
_ZN8argparse14ArgumentParserD2Ev:       # @_ZN8argparse14ArgumentParserD2Ev
.Lfunc_begin3:
	.cfi_startproc
	.cfi_personality 3, __gxx_personality_v0
	.cfi_lsda 3, .Lexception3
# %bb.0:
	pushq	%r15
	.cfi_def_cfa_offset 16
	pushq	%r14
	.cfi_def_cfa_offset 24
	pushq	%r12
	.cfi_def_cfa_offset 32
	pushq	%rbx
	.cfi_def_cfa_offset 40
	pushq	%rax
	.cfi_def_cfa_offset 48
	.cfi_offset %rbx, -40
	.cfi_offset %r12, -32
	.cfi_offset %r14, -24
	.cfi_offset %r15, -16
	movq	%rdi, %rbx
	movq	456(%rdi), %r14
	movq	464(%rdi), %r15
	cmpq	%r15, %r14
	jne	.LBB5_1
# %bb.5:                                # %_ZSt8_DestroyIPN8argparse14ArgumentParser22MutuallyExclusiveGroupES2_EvT_S4_RSaIT0_E.exit.i
	testq	%r14, %r14
	je	.LBB5_7
.LBB5_6:
	movq	%r14, %rdi
	callq	_ZdlPv
.LBB5_7:                                # %_ZNSt6vectorIN8argparse14ArgumentParser22MutuallyExclusiveGroupESaIS2_EED2Ev.exit
	leaq	408(%rbx), %rdi
	movq	424(%rbx), %rsi
.Ltmp346:
	callq	_ZNSt8_Rb_treeISt17basic_string_viewIcSt11char_traitsIcEESt4pairIKS3_bESt10_Select1stIS6_ESt4lessIS3_ESaIS6_EE8_M_eraseEPSt13_Rb_tree_nodeIS6_E
.Ltmp347:
# %bb.8:                                # %_ZNSt3mapISt17basic_string_viewIcSt11char_traitsIcEEbSt4lessIS3_ESaISt4pairIKS3_bEEED2Ev.exit
	leaq	360(%rbx), %rdi
	movq	376(%rbx), %rsi
.Ltmp349:
	callq	_ZNSt8_Rb_treeISt17basic_string_viewIcSt11char_traitsIcEESt4pairIKS3_St14_List_iteratorISt17reference_wrapperIN8argparse14ArgumentParserEEEESt10_Select1stISC_ESt4lessIS3_ESaISC_EE8_M_eraseEPSt13_Rb_tree_nodeISC_E
.Ltmp350:
# %bb.9:                                # %_ZNSt3mapISt17basic_string_viewIcSt11char_traitsIcEESt14_List_iteratorISt17reference_wrapperIN8argparse14ArgumentParserEEESt4lessIS3_ESaISt4pairIKS3_S9_EEED2Ev.exit
	leaq	336(%rbx), %r14
	movq	336(%rbx), %rdi
	cmpq	%r14, %rdi
	je	.LBB5_11
	.p2align	4, 0x90
.LBB5_10:                               # %.lr.ph.i.i
                                        # =>This Inner Loop Header: Depth=1
	movq	(%rdi), %r15
	callq	_ZdlPv
	movq	%r15, %rdi
	cmpq	%r14, %r15
	jne	.LBB5_10
.LBB5_11:                               # %_ZNSt7__cxx1110_List_baseISt17reference_wrapperIN8argparse14ArgumentParserEESaIS4_EED2Ev.exit
	movq	304(%rbx), %rdi
	leaq	320(%rbx), %rax
	cmpq	%rax, %rdi
	je	.LBB5_13
# %bb.12:
	callq	_ZdlPv
.LBB5_13:                               # %_ZNSt7__cxx1112basic_stringIcSt11char_traitsIcESaIcEED2Ev.exit
	leaq	256(%rbx), %rdi
	movq	272(%rbx), %rsi
.Ltmp352:
	callq	_ZNSt8_Rb_treeISt17basic_string_viewIcSt11char_traitsIcEESt4pairIKS3_St14_List_iteratorIN8argparse8ArgumentEEESt10_Select1stISA_ESt4lessIS3_ESaISA_EE8_M_eraseEPSt13_Rb_tree_nodeISA_E
.Ltmp353:
# %bb.14:                               # %_ZNSt3mapISt17basic_string_viewIcSt11char_traitsIcEESt14_List_iteratorIN8argparse8ArgumentEESt4lessIS3_ESaISt4pairIKS3_S7_EEED2Ev.exit
	leaq	232(%rbx), %r15
	movq	232(%rbx), %r14
	cmpq	%r15, %r14
	je	.LBB5_16
	.p2align	4, 0x90
.LBB5_15:                               # %.lr.ph.i.i4
                                        # =>This Inner Loop Header: Depth=1
	movq	(%r14), %r12
	leaq	16(%r14), %rdi
	callq	_ZN8argparse8ArgumentD2Ev
	movq	%r14, %rdi
	callq	_ZdlPv
	movq	%r12, %r14
	cmpq	%r15, %r12
	jne	.LBB5_15
.LBB5_16:                               # %_ZNSt7__cxx1110_List_baseIN8argparse8ArgumentESaIS2_EED2Ev.exit
	leaq	208(%rbx), %r15
	movq	208(%rbx), %r14
	cmpq	%r15, %r14
	je	.LBB5_18
	.p2align	4, 0x90
.LBB5_17:                               # %.lr.ph.i.i8
                                        # =>This Inner Loop Header: Depth=1
	movq	(%r14), %r12
	leaq	16(%r14), %rdi
	callq	_ZN8argparse8ArgumentD2Ev
	movq	%r14, %rdi
	callq	_ZdlPv
	movq	%r12, %r14
	cmpq	%r15, %r12
	jne	.LBB5_17
.LBB5_18:                               # %_ZNSt7__cxx1110_List_baseIN8argparse8ArgumentESaIS2_EED2Ev.exit9
	movq	168(%rbx), %rdi
	leaq	184(%rbx), %rax
	cmpq	%rax, %rdi
	je	.LBB5_20
# %bb.19:
	callq	_ZdlPv
.LBB5_20:                               # %_ZNSt7__cxx1112basic_stringIcSt11char_traitsIcESaIcEED2Ev.exit10
	movq	136(%rbx), %rdi
	leaq	152(%rbx), %rax
	cmpq	%rax, %rdi
	je	.LBB5_22
# %bb.21:
	callq	_ZdlPv
.LBB5_22:                               # %_ZNSt7__cxx1112basic_stringIcSt11char_traitsIcESaIcEED2Ev.exit11
	movq	96(%rbx), %rdi
	leaq	112(%rbx), %rax
	cmpq	%rax, %rdi
	je	.LBB5_24
# %bb.23:
	callq	_ZdlPv
.LBB5_24:                               # %_ZNSt7__cxx1112basic_stringIcSt11char_traitsIcESaIcEED2Ev.exit12
	movq	64(%rbx), %rdi
	leaq	80(%rbx), %rax
	cmpq	%rax, %rdi
	je	.LBB5_26
# %bb.25:
	callq	_ZdlPv
.LBB5_26:                               # %_ZNSt7__cxx1112basic_stringIcSt11char_traitsIcESaIcEED2Ev.exit13
	movq	32(%rbx), %rdi
	leaq	48(%rbx), %rax
	cmpq	%rax, %rdi
	je	.LBB5_28
# %bb.27:
	callq	_ZdlPv
.LBB5_28:                               # %_ZNSt7__cxx1112basic_stringIcSt11char_traitsIcESaIcEED2Ev.exit14
	movq	(%rbx), %rdi
	addq	$16, %rbx
	addq	$8, %rsp
	cmpq	%rbx, %rdi
	je	.LBB5_29
# %bb.33:
	.cfi_def_cfa_offset 40
	popq	%rbx
	.cfi_def_cfa_offset 32
	popq	%r12
	.cfi_def_cfa_offset 24
	popq	%r14
	.cfi_def_cfa_offset 16
	popq	%r15
	.cfi_def_cfa_offset 8
	jmp	_ZdlPv                          # TAILCALL
	.p2align	4, 0x90
.LBB5_3:                                # %_ZSt8_DestroyIN8argparse14ArgumentParser22MutuallyExclusiveGroupEEvPT_.exit.i.i.i.i
                                        #   in Loop: Header=BB5_1 Depth=1
	.cfi_def_cfa_offset 48
	addq	$40, %r14
	cmpq	%r15, %r14
	je	.LBB5_4
.LBB5_1:                                # %.lr.ph.i.i.i.i
                                        # =>This Inner Loop Header: Depth=1
	movq	16(%r14), %rdi
	testq	%rdi, %rdi
	je	.LBB5_3
# %bb.2:                                #   in Loop: Header=BB5_1 Depth=1
	callq	_ZdlPv
	jmp	.LBB5_3
.LBB5_4:                                # %_ZSt8_DestroyIPN8argparse14ArgumentParser22MutuallyExclusiveGroupES2_EvT_S4_RSaIT0_E.exitthread-pre-split.i
	movq	456(%rbx), %r14
	testq	%r14, %r14
	jne	.LBB5_6
	jmp	.LBB5_7
.LBB5_29:                               # %_ZNSt7__cxx1112basic_stringIcSt11char_traitsIcESaIcEED2Ev.exit15
	.cfi_def_cfa_offset 40
	popq	%rbx
	.cfi_def_cfa_offset 32
	popq	%r12
	.cfi_def_cfa_offset 24
	popq	%r14
	.cfi_def_cfa_offset 16
	popq	%r15
	.cfi_def_cfa_offset 8
	retq
.LBB5_32:
	.cfi_def_cfa_offset 48
.Ltmp354:
	movq	%rax, %rdi
	callq	__clang_call_terminate
.LBB5_31:
.Ltmp351:
	movq	%rax, %rdi
	callq	__clang_call_terminate
.LBB5_30:
.Ltmp348:
	movq	%rax, %rdi
	callq	__clang_call_terminate
.Lfunc_end5:
	.size	_ZN8argparse14ArgumentParserD2Ev, .Lfunc_end5-_ZN8argparse14ArgumentParserD2Ev
	.cfi_endproc
	.section	.gcc_except_table._ZN8argparse14ArgumentParserD2Ev,"aG",@progbits,_ZN8argparse14ArgumentParserD2Ev,comdat
	.p2align	2, 0x0
GCC_except_table5:
.Lexception3:
	.byte	255                             # @LPStart Encoding = omit
	.byte	3                               # @TType Encoding = udata4
	.uleb128 .Lttbase2-.Lttbaseref2
.Lttbaseref2:
	.byte	1                               # Call site Encoding = uleb128
	.uleb128 .Lcst_end3-.Lcst_begin3
.Lcst_begin3:
	.uleb128 .Ltmp346-.Lfunc_begin3         # >> Call Site 1 <<
	.uleb128 .Ltmp347-.Ltmp346              #   Call between .Ltmp346 and .Ltmp347
	.uleb128 .Ltmp348-.Lfunc_begin3         #     jumps to .Ltmp348
	.byte	1                               #   On action: 1
	.uleb128 .Ltmp349-.Lfunc_begin3         # >> Call Site 2 <<
	.uleb128 .Ltmp350-.Ltmp349              #   Call between .Ltmp349 and .Ltmp350
	.uleb128 .Ltmp351-.Lfunc_begin3         #     jumps to .Ltmp351
	.byte	1                               #   On action: 1
	.uleb128 .Ltmp352-.Lfunc_begin3         # >> Call Site 3 <<
	.uleb128 .Ltmp353-.Ltmp352              #   Call between .Ltmp352 and .Ltmp353
	.uleb128 .Ltmp354-.Lfunc_begin3         #     jumps to .Ltmp354
	.byte	1                               #   On action: 1
.Lcst_end3:
	.byte	1                               # >> Action Record 1 <<
                                        #   Catch TypeInfo 1
	.byte	0                               #   No further actions
	.p2align	2, 0x0
                                        # >> Catch TypeInfos <<
	.long	0                               # TypeInfo 1
.Lttbase2:
	.p2align	2, 0x0
                                        # -- End function
	.section	.rodata.cst16,"aM",@progbits,16
	.p2align	4, 0x0                          # -- Begin function main
.LCPI6_0:
	.long	0x3f800000                      # float 1
	.long	0x3f800000                      # float 1
	.long	0x3f800000                      # float 1
	.long	0x3f800000                      # float 1
	.text
	.globl	main
	.p2align	4, 0x90
	.type	main,@function
main:                                   # @main
.Lfunc_begin4:
	.cfi_startproc
	.cfi_personality 3, __gxx_personality_v0
	.cfi_lsda 3, .Lexception4
# %bb.0:
	pushq	%rbp
	.cfi_def_cfa_offset 16
	pushq	%r15
	.cfi_def_cfa_offset 24
	pushq	%r14
	.cfi_def_cfa_offset 32
	pushq	%r13
	.cfi_def_cfa_offset 40
	pushq	%r12
	.cfi_def_cfa_offset 48
	pushq	%rbx
	.cfi_def_cfa_offset 56
	subq	$584, %rsp                      # imm = 0x248
	.cfi_def_cfa_offset 640
	.cfi_offset %rbx, -56
	.cfi_offset %r12, -48
	.cfi_offset %r13, -40
	.cfi_offset %r14, -32
	.cfi_offset %r15, -24
	.cfi_offset %rbp, -16
	movq	%rsi, %rdx
	movl	%edi, %esi
	.cfi_escape 0x2e, 0x00
	leaq	320(%rsp), %rdi
	callq	_Z12parse_inputsiPPc
	.cfi_escape 0x2e, 0x00
	movl	$_ZSt4cout, %edi
	movl	$.L.str.16, %esi
	movl	$9, %edx
	callq	_ZSt16__ostream_insertIcSt11char_traitsIcEERSt13basic_ostreamIT_T0_ES6_PKS3_l
	movl	320(%rsp), %r12d
	.cfi_escape 0x2e, 0x00
	movl	$_ZSt4cout, %edi
	movl	%r12d, %esi
	callq	_ZNSolsEi
	movq	%rax, %rbx
	.cfi_escape 0x2e, 0x00
	movl	$.L.str.17, %esi
	movl	$2, %edx
	movq	%rax, %rdi
	callq	_ZSt16__ostream_insertIcSt11char_traitsIcEERSt13basic_ostreamIT_T0_ES6_PKS3_l
	movl	324(%rsp), %r15d
	.cfi_escape 0x2e, 0x00
	movq	%rbx, %rdi
	movl	%r15d, %esi
	callq	_ZNSolsEi
	movq	%rax, %rbx
	.cfi_escape 0x2e, 0x00
	movl	$.L.str.17, %esi
	movl	$2, %edx
	movq	%rax, %rdi
	callq	_ZSt16__ostream_insertIcSt11char_traitsIcEERSt13basic_ostreamIT_T0_ES6_PKS3_l
	movl	328(%rsp), %ebp
	.cfi_escape 0x2e, 0x00
	movq	%rbx, %rdi
	movl	%ebp, %esi
	callq	_ZNSolsEi
	movq	%rax, %rbx
	.cfi_escape 0x2e, 0x00
	movl	$.L.str.17, %esi
	movl	$2, %edx
	movq	%rax, %rdi
	callq	_ZSt16__ostream_insertIcSt11char_traitsIcEERSt13basic_ostreamIT_T0_ES6_PKS3_l
	movl	332(%rsp), %r14d
	.cfi_escape 0x2e, 0x00
	movq	%rbx, %rdi
	movl	%r14d, %esi
	callq	_ZNSolsEi
	.cfi_escape 0x2e, 0x00
	movl	$.L.str.18, %esi
	movl	$2, %edx
	movq	%rax, %rdi
	callq	_ZSt16__ostream_insertIcSt11char_traitsIcEERSt13basic_ostreamIT_T0_ES6_PKS3_l
	.cfi_escape 0x2e, 0x00
	movl	$_ZSt4cout, %edi
	movl	$.L.str.19, %esi
	movl	$9, %edx
	callq	_ZSt16__ostream_insertIcSt11char_traitsIcEERSt13basic_ostreamIT_T0_ES6_PKS3_l
	movl	344(%rsp), %r13d
	.cfi_escape 0x2e, 0x00
	movl	$_ZSt4cout, %edi
	movl	%r13d, %esi
	callq	_ZNSolsEi
	movq	%rax, %rbx
	.cfi_escape 0x2e, 0x00
	movl	$.L.str.17, %esi
	movl	$2, %edx
	movq	%rax, %rdi
	callq	_ZSt16__ostream_insertIcSt11char_traitsIcEERSt13basic_ostreamIT_T0_ES6_PKS3_l
	.cfi_escape 0x2e, 0x00
	movq	%rbx, %rdi
	movl	%r15d, %esi
	callq	_ZNSolsEi
	movq	%rax, %rbx
	.cfi_escape 0x2e, 0x00
	movl	$.L.str.17, %esi
	movl	$2, %edx
	movq	%rax, %rdi
	callq	_ZSt16__ostream_insertIcSt11char_traitsIcEERSt13basic_ostreamIT_T0_ES6_PKS3_l
	movl	336(%rsp), %esi
	.cfi_escape 0x2e, 0x00
	movq	%rbx, %rdi
	movl	%esi, 48(%rsp)                  # 4-byte Spill
	callq	_ZNSolsEi
	movq	%rax, %rbx
	.cfi_escape 0x2e, 0x00
	movl	$.L.str.17, %esi
	movl	$2, %edx
	movq	%rax, %rdi
	callq	_ZSt16__ostream_insertIcSt11char_traitsIcEERSt13basic_ostreamIT_T0_ES6_PKS3_l
	movl	340(%rsp), %esi
	.cfi_escape 0x2e, 0x00
	movq	%rbx, %rdi
	movl	%esi, 44(%rsp)                  # 4-byte Spill
	callq	_ZNSolsEi
	.cfi_escape 0x2e, 0x00
	movl	$.L.str.18, %esi
	movl	$2, %edx
	movq	%rax, %rdi
	callq	_ZSt16__ostream_insertIcSt11char_traitsIcEERSt13basic_ostreamIT_T0_ES6_PKS3_l
	.cfi_escape 0x2e, 0x00
	movl	$_ZSt4cout, %edi
	movl	$.L.str.20, %esi
	movl	$9, %edx
	callq	_ZSt16__ostream_insertIcSt11char_traitsIcEERSt13basic_ostreamIT_T0_ES6_PKS3_l
	.cfi_escape 0x2e, 0x00
	movl	$_ZSt4cout, %edi
	movl	%r12d, %esi
	callq	_ZNSolsEi
	movq	%rax, %rbx
	.cfi_escape 0x2e, 0x00
	movl	$.L.str.17, %esi
	movl	$2, %edx
	movq	%rax, %rdi
	callq	_ZSt16__ostream_insertIcSt11char_traitsIcEERSt13basic_ostreamIT_T0_ES6_PKS3_l
	.cfi_escape 0x2e, 0x00
	movq	%rbx, %rdi
	movq	%r13, 72(%rsp)                  # 8-byte Spill
	movl	%r13d, %esi
	callq	_ZNSolsEi
	movq	%rax, %rbx
	.cfi_escape 0x2e, 0x00
	movl	$.L.str.17, %esi
	movl	$2, %edx
	movq	%rax, %rdi
	callq	_ZSt16__ostream_insertIcSt11char_traitsIcEERSt13basic_ostreamIT_T0_ES6_PKS3_l
	.cfi_escape 0x2e, 0x00
	movq	%rbx, %rdi
	movl	%ebp, %esi
	callq	_ZNSolsEi
	movq	%rax, %rbx
	.cfi_escape 0x2e, 0x00
	movl	$.L.str.17, %esi
	movl	$2, %edx
	movq	%rax, %rdi
	callq	_ZSt16__ostream_insertIcSt11char_traitsIcEERSt13basic_ostreamIT_T0_ES6_PKS3_l
	.cfi_escape 0x2e, 0x00
	movq	%rbx, %rdi
	movl	%r14d, %esi
	callq	_ZNSolsEi
	.cfi_escape 0x2e, 0x00
	movl	$.L.str.18, %esi
	movl	$2, %edx
	movq	%rax, %rdi
	callq	_ZSt16__ostream_insertIcSt11char_traitsIcEERSt13basic_ostreamIT_T0_ES6_PKS3_l
	.cfi_escape 0x2e, 0x00
	movl	$_ZSt4cout, %edi
	movl	$.L.str.21, %esi
	movl	$13, %edx
	callq	_ZSt16__ostream_insertIcSt11char_traitsIcEERSt13basic_ostreamIT_T0_ES6_PKS3_l
	movzbl	348(%rsp), %ebx
	.cfi_escape 0x2e, 0x00
	movzbl	%bl, %esi
	movl	$_ZSt4cout, %edi
	callq	_ZNSo9_M_insertIbEERSoT_
	.cfi_escape 0x2e, 0x00
	movl	$.L.str.22, %esi
	movl	$1, %edx
	movq	%rax, %rdi
	callq	_ZSt16__ostream_insertIcSt11char_traitsIcEERSt13basic_ostreamIT_T0_ES6_PKS3_l
	movl	%ebp, 20(%rsp)                  # 4-byte Spill
	imull	%r12d, %ebp
	movl	%r14d, 16(%rsp)                 # 4-byte Spill
	imull	%r14d, %ebp
	movl	%ebp, %eax
	movl	%r15d, 52(%rsp)                 # 4-byte Spill
	imull	%r15d, %eax
	testl	%eax, %eax
	js	.LBB6_242
# %bb.1:                                # %_ZNSt6vectorIfSaIfEE17_S_check_init_lenEmRKS0_.exit.i
	movb	%bl, 7(%rsp)                    # 1-byte Spill
	je	.LBB6_2
# %bb.3:                                # %.lr.ph.i.i.preheader.i.i.i.i.i
	movslq	%eax, %r14
	leaq	(,%r14,4), %rbx
	.cfi_escape 0x2e, 0x00
	movq	%rbx, %rdi
	callq	_Znwm
	movq	%rax, %r15
	.cfi_escape 0x2e, 0x00
	movq	%rax, %rdi
	xorl	%esi, %esi
	movq	%rbx, %rdx
	callq	memset@PLT
	movq	%r15, %rax
	movq	%r15, 8(%rsp)                   # 8-byte Spill
	leaq	(%r15,%r14,4), %r13
	jmp	.LBB6_4
.LBB6_2:
	xorl	%eax, %eax
	movq	%rax, 8(%rsp)                   # 8-byte Spill
	xorl	%r13d, %r13d
.LBB6_4:                                # %_ZNSt6vectorIfSaIfEEC2EmRKS0_.exit
	movq	72(%rsp), %rax                  # 8-byte Reload
	movl	%eax, %ecx
	imull	52(%rsp), %ecx                  # 4-byte Folded Reload
	movl	48(%rsp), %eax                  # 4-byte Reload
	imull	44(%rsp), %eax                  # 4-byte Folded Reload
	imull	%ecx, %eax
	testl	%eax, %eax
	js	.LBB6_5
# %bb.7:                                # %_ZNSt6vectorIfSaIfEE17_S_check_init_lenEmRKS0_.exit.i164
	movl	%r12d, 156(%rsp)                # 4-byte Spill
	je	.LBB6_8
# %bb.9:                                # %.lr.ph.i.i.preheader.i.i.i.i.i167
	movslq	%eax, %rbx
	shlq	$2, %rbx
.Ltmp355:
	.cfi_escape 0x2e, 0x00
	movq	%rbx, %rdi
	callq	_Znwm
.Ltmp356:
# %bb.10:                               # %.noexc171
	movq	%rax, %r12
	.cfi_escape 0x2e, 0x00
	movq	%rax, %rdi
	xorl	%esi, %esi
	movq	%rbx, %rdx
	callq	memset@PLT
	movq	%r12, %rax
	movq	%r12, 32(%rsp)                  # 8-byte Spill
	addq	%rbx, %r12
	imull	72(%rsp), %ebp                  # 4-byte Folded Reload
	testl	%ebp, %ebp
	js	.LBB6_12
.LBB6_14:                               # %_ZNSt6vectorIfSaIfEE17_S_check_init_lenEmRKS0_.exit.i174
	movl	%ebp, 40(%rsp)                  # 4-byte Spill
	je	.LBB6_15
# %bb.16:                               # %.lr.ph.i.i.preheader.i.i.i.i.i177
	movslq	%ebp, %rbx
	shlq	$2, %rbx
.Ltmp357:
	.cfi_escape 0x2e, 0x00
	movq	%rbx, %rdi
	callq	_Znwm
.Ltmp358:
# %bb.17:                               # %.lr.ph.i.i.preheader.i.i.i.i.i187
	movq	%rax, %rbp
	.cfi_escape 0x2e, 0x00
	movq	%rax, %rdi
	xorl	%esi, %esi
	movq	%rbx, %rdx
	callq	memset@PLT
.Ltmp359:
	.cfi_escape 0x2e, 0x00
	movq	%rbx, %rdi
	callq	_Znwm
.Ltmp360:
# %bb.18:                               # %.lr.ph.i.i.preheader.i.i.i.i.i197
	movq	%rax, %r14
	.cfi_escape 0x2e, 0x00
	movq	%rax, %rdi
	xorl	%esi, %esi
	movq	%rbx, %rdx
	callq	memset@PLT
.Ltmp362:
	.cfi_escape 0x2e, 0x00
	movq	%rbx, %rdi
	movq	%rbp, 56(%rsp)                  # 8-byte Spill
	callq	_Znwm
.Ltmp363:
# %bb.19:                               # %.noexc201
	movq	%rax, %r15
	addq	%rbx, %rbp
	movq	%r14, 24(%rsp)                  # 8-byte Spill
	addq	%rbx, %r14
	.cfi_escape 0x2e, 0x00
	movq	%rax, %rdi
	xorl	%esi, %esi
	movq	%rbx, %rdx
	callq	memset@PLT
	movq	%r15, %rax
	movq	%r15, 64(%rsp)                  # 8-byte Spill
	addq	%rbx, %r15
	cmpq	%r13, 8(%rsp)                   # 8-byte Folded Reload
	jne	.LBB6_21
	jmp	.LBB6_26
.LBB6_8:
	xorl	%eax, %eax
	movq	%rax, 32(%rsp)                  # 8-byte Spill
	xorl	%r12d, %r12d
	imull	72(%rsp), %ebp                  # 4-byte Folded Reload
	testl	%ebp, %ebp
	jns	.LBB6_14
.LBB6_12:
.Ltmp624:
	.cfi_escape 0x2e, 0x00
	movl	$.L.str.59, %edi
	callq	_ZSt20__throw_length_errorPKc
.Ltmp625:
# %bb.13:                               # %.noexc180
.LBB6_15:
	xorl	%r14d, %r14d
	xorl	%eax, %eax
	movq	%rax, 24(%rsp)                  # 8-byte Spill
	xorl	%eax, %eax
	movq	%rax, 56(%rsp)                  # 8-byte Spill
	xorl	%ebp, %ebp
	xorl	%eax, %eax
	movq	%rax, 64(%rsp)                  # 8-byte Spill
	xorl	%r15d, %r15d
	cmpq	%r13, 8(%rsp)                   # 8-byte Folded Reload
	je	.LBB6_26
.LBB6_21:                               # %.lr.ph.i.i.preheader
	movq	%r13, %rcx
	movq	8(%rsp), %rax                   # 8-byte Reload
	subq	%rax, %rcx
	addq	$-4, %rcx
	cmpq	$28, %rcx
	jb	.LBB6_25
# %bb.22:                               # %vector.ph
	shrq	$2, %rcx
	incq	%rcx
	movq	%rcx, %rdx
	andq	$-8, %rdx
	movq	8(%rsp), %rdi                   # 8-byte Reload
	leaq	(%rdi,%rdx,4), %rax
	xorl	%esi, %esi
	movaps	.LCPI6_0(%rip), %xmm0           # xmm0 = [1.0E+0,1.0E+0,1.0E+0,1.0E+0]
	.p2align	4, 0x90
.LBB6_23:                               # %vector.body
                                        # =>This Inner Loop Header: Depth=1
	movups	%xmm0, (%rdi,%rsi,4)
	movups	%xmm0, 16(%rdi,%rsi,4)
	addq	$8, %rsi
	cmpq	%rsi, %rdx
	jne	.LBB6_23
# %bb.24:                               # %middle.block
	cmpq	%rdx, %rcx
	je	.LBB6_26
	.p2align	4, 0x90
.LBB6_25:                               # %.lr.ph.i.i
                                        # =>This Inner Loop Header: Depth=1
	movl	$1065353216, (%rax)             # imm = 0x3F800000
	addq	$4, %rax
	cmpq	%r13, %rax
	jne	.LBB6_25
.LBB6_26:                               # %_ZSt4fillIN9__gnu_cxx17__normal_iteratorIPfSt6vectorIfSaIfEEEEdEvT_S7_RKT0_.exit
	movq	32(%rsp), %rdi                  # 8-byte Reload
	cmpq	%r12, %rdi
	je	.LBB6_28
# %bb.27:                               # %.lr.ph.i.i204.preheader
	movq	%r12, %rdx
	subq	%rdi, %rdx
	addq	$-4, %rdx
	andq	$-4, %rdx
	addq	$4, %rdx
	.cfi_escape 0x2e, 0x00
	xorl	%esi, %esi
	callq	memset@PLT
.LBB6_28:                               # %_ZSt4fillIN9__gnu_cxx17__normal_iteratorIPfSt6vectorIfSaIfEEEEdEvT_S7_RKT0_.exit207
	movq	24(%rsp), %rdi                  # 8-byte Reload
	cmpq	%r14, %rdi
	je	.LBB6_30
# %bb.29:                               # %.lr.ph.i.i209.preheader
	movq	%r14, %rdx
	subq	%rdi, %rdx
	addq	$-4, %rdx
	andq	$-4, %rdx
	addq	$4, %rdx
	.cfi_escape 0x2e, 0x00
	xorl	%esi, %esi
	callq	memset@PLT
.LBB6_30:                               # %_ZSt4fillIN9__gnu_cxx17__normal_iteratorIPfSt6vectorIfSaIfEEEEdEvT_S7_RKT0_.exit212
	subq	8(%rsp), %r13                   # 8-byte Folded Reload
.Ltmp365:
	.cfi_escape 0x2e, 0x00
	leaq	120(%rsp), %rdi
	movq	%r13, %rsi
	callq	hipMalloc
.Ltmp366:
# %bb.31:                               # %_ZL9hipMallocIfE10hipError_tPPT_m.exit
	movl	%eax, %ebx
	testl	%eax, %eax
	jne	.LBB6_32
# %bb.42:
.Ltmp376:
	subq	32(%rsp), %r12                  # 8-byte Folded Reload
	.cfi_escape 0x2e, 0x00
	leaq	112(%rsp), %rdi
	movq	%r12, %rsi
	callq	hipMalloc
.Ltmp377:
# %bb.43:                               # %_ZL9hipMallocIfE10hipError_tPPT_m.exit217
	movl	%eax, %ebx
	testl	%eax, %eax
	jne	.LBB6_44
# %bb.50:
.Ltmp387:
	subq	56(%rsp), %rbp                  # 8-byte Folded Reload
	.cfi_escape 0x2e, 0x00
	leaq	104(%rsp), %rdi
	movq	%rbp, %rsi
	callq	hipMalloc
.Ltmp388:
# %bb.51:                               # %_ZL9hipMallocIfE10hipError_tPPT_m.exit223
	movl	%eax, %ebx
	testl	%eax, %eax
	jne	.LBB6_52
# %bb.58:
.Ltmp398:
	subq	24(%rsp), %r14                  # 8-byte Folded Reload
	.cfi_escape 0x2e, 0x00
	leaq	80(%rsp), %rdi
	movq	%r14, %rsi
	callq	hipMalloc
.Ltmp399:
# %bb.59:                               # %_ZL9hipMallocIfE10hipError_tPPT_m.exit229
	movl	%eax, %ebx
	testl	%eax, %eax
	jne	.LBB6_60
# %bb.66:
.Ltmp409:
	movq	%r15, %rsi
	subq	64(%rsp), %rsi                  # 8-byte Folded Reload
	.cfi_escape 0x2e, 0x00
	leaq	96(%rsp), %rdi
	movq	%rsi, %rbp
	callq	hipMalloc
.Ltmp410:
# %bb.67:                               # %_ZL9hipMallocIfE10hipError_tPPT_m.exit235
	movl	%eax, %ebx
	testl	%eax, %eax
	jne	.LBB6_68
# %bb.74:
.Ltmp420:
	.cfi_escape 0x2e, 0x00
	leaq	88(%rsp), %rdi
	callq	hipStreamCreate
.Ltmp421:
# %bb.75:
	movl	%eax, %ebx
	testl	%eax, %eax
	jne	.LBB6_76
# %bb.82:
	movq	120(%rsp), %rdi
.Ltmp431:
	.cfi_escape 0x2e, 0x00
	movq	8(%rsp), %rsi                   # 8-byte Reload
	movq	%r13, %rdx
	movl	$1, %ecx
	callq	hipMemcpy
.Ltmp432:
# %bb.83:
	movl	%eax, %ebx
	testl	%eax, %eax
	movq	32(%rsp), %rsi                  # 8-byte Reload
	jne	.LBB6_84
# %bb.90:
	movq	112(%rsp), %rdi
.Ltmp442:
	.cfi_escape 0x2e, 0x00
	movq	%r12, %rdx
	movl	$1, %ecx
	movq	8(%rsp), %r13                   # 8-byte Reload
	callq	hipMemcpy
.Ltmp443:
# %bb.91:
	movl	%eax, %ebx
	testl	%eax, %eax
	jne	.LBB6_92
# %bb.98:
	movq	80(%rsp), %rdi
.Ltmp453:
	.cfi_escape 0x2e, 0x00
	movq	24(%rsp), %rsi                  # 8-byte Reload
	movq	%r14, %rdx
	movl	$1, %ecx
	callq	hipMemcpy
.Ltmp454:
# %bb.99:
	movl	%eax, %ebx
	testl	%eax, %eax
	movq	64(%rsp), %r14                  # 8-byte Reload
	jne	.LBB6_100
# %bb.106:
	movabsq	$4294967296, %r12               # imm = 0x100000000
	addq	72(%rsp), %r12                  # 8-byte Folded Reload
.Ltmp464:
	.cfi_escape 0x2e, 0x00
	movabsq	$4294967516, %rdx               # imm = 0x1000000DC
	movq	%r12, %rdi
	movl	$1, %esi
	movl	$1, %ecx
	xorl	%r8d, %r8d
	xorl	%r9d, %r9d
	callq	__hipPushCallConfiguration
.Ltmp465:
# %bb.107:
	testl	%eax, %eax
	jne	.LBB6_110
# %bb.108:
	movq	120(%rsp), %rax
	movq	112(%rsp), %rcx
	movq	104(%rsp), %rdx
	xorps	%xmm0, %xmm0
	movaps	%xmm0, 352(%rsp)
	movl	$0, 368(%rsp)
	movaps	%xmm0, 256(%rsp)
	movl	$0, 272(%rsp)
	movaps	%xmm0, 288(%rsp)
	movl	$0, 304(%rsp)
	movq	%rax, 144(%rsp)
	movq	%rcx, 136(%rsp)
	movq	%rdx, 128(%rsp)
	movl	20(%rsp), %eax                  # 4-byte Reload
	movl	%eax, 220(%rsp)
	movl	16(%rsp), %ecx                  # 4-byte Reload
	movl	%ecx, 216(%rsp)
	movl	156(%rsp), %edx                 # 4-byte Reload
	movl	%edx, 212(%rsp)
	movq	72(%rsp), %rdx                  # 8-byte Reload
	movl	%edx, 208(%rsp)
	movl	52(%rsp), %edx                  # 4-byte Reload
	movl	%edx, 204(%rsp)
	movl	%eax, 200(%rsp)
	movl	%ecx, 196(%rsp)
	movl	$1, 192(%rsp)
	movl	$1, 188(%rsp)
	movl	$1, 184(%rsp)
	movl	$1, 180(%rsp)
	movl	$1, 176(%rsp)
	movl	$1, 172(%rsp)
	movl	48(%rsp), %eax                  # 4-byte Reload
	movl	%eax, 168(%rsp)
	movl	44(%rsp), %eax                  # 4-byte Reload
	movl	%eax, 164(%rsp)
	movl	$1, 160(%rsp)
	leaq	144(%rsp), %rax
	movq	%rax, 400(%rsp)
	leaq	136(%rsp), %rax
	movq	%rax, 408(%rsp)
	leaq	128(%rsp), %rax
	movq	%rax, 416(%rsp)
	leaq	352(%rsp), %rax
	movq	%rax, 424(%rsp)
	leaq	256(%rsp), %rax
	movq	%rax, 432(%rsp)
	leaq	288(%rsp), %rax
	movq	%rax, 440(%rsp)
	leaq	220(%rsp), %rax
	movq	%rax, 448(%rsp)
	leaq	216(%rsp), %rax
	movq	%rax, 456(%rsp)
	leaq	212(%rsp), %rax
	movq	%rax, 464(%rsp)
	leaq	208(%rsp), %rax
	movq	%rax, 472(%rsp)
	leaq	204(%rsp), %rax
	movq	%rax, 480(%rsp)
	leaq	200(%rsp), %rax
	movq	%rax, 488(%rsp)
	leaq	196(%rsp), %rax
	movq	%rax, 496(%rsp)
	leaq	192(%rsp), %rax
	movq	%rax, 504(%rsp)
	leaq	188(%rsp), %rax
	movq	%rax, 512(%rsp)
	leaq	184(%rsp), %rax
	movq	%rax, 520(%rsp)
	leaq	180(%rsp), %rax
	movq	%rax, 528(%rsp)
	leaq	176(%rsp), %rax
	movq	%rax, 536(%rsp)
	leaq	172(%rsp), %rax
	movq	%rax, 544(%rsp)
	leaq	168(%rsp), %rax
	movq	%rax, 552(%rsp)
	leaq	164(%rsp), %rax
	movq	%rax, 560(%rsp)
	leaq	160(%rsp), %rax
	movq	%rax, 568(%rsp)
.Ltmp466:
	.cfi_escape 0x2e, 0x00
	leaq	240(%rsp), %rdi
	leaq	224(%rsp), %rsi
	leaq	392(%rsp), %rdx
	leaq	384(%rsp), %rcx
	callq	__hipPopCallConfiguration
.Ltmp467:
# %bb.109:                              # %.noexc256
	movq	240(%rsp), %rsi
	movl	248(%rsp), %edx
	movq	224(%rsp), %rcx
	movl	232(%rsp), %r8d
.Ltmp468:
	.cfi_escape 0x2e, 0x10
	leaq	400(%rsp), %r9
	movl	$_Z19naive_conv_fwd_nchwILb1EfffEvPKT0_S2_PT2_St5arrayIiLm5EES6_S6_iiiiiiiiiiiiiiii, %edi
	pushq	384(%rsp)
	.cfi_adjust_cfa_offset 8
	pushq	400(%rsp)
	.cfi_adjust_cfa_offset 8
	callq	hipLaunchKernel
	addq	$16, %rsp
	.cfi_adjust_cfa_offset -16
.Ltmp469:
.LBB6_110:
	movq	88(%rsp), %r9
.Ltmp471:
	.cfi_escape 0x2e, 0x00
	movabsq	$4294967516, %rdx               # imm = 0x1000000DC
	movq	%r12, %rdi
	movl	$1, %esi
	movl	$1, %ecx
	xorl	%r8d, %r8d
	callq	__hipPushCallConfiguration
.Ltmp472:
# %bb.111:
	testl	%eax, %eax
	jne	.LBB6_114
# %bb.112:
	movq	80(%rsp), %rax
	movq	%rax, 352(%rsp)
	movl	20(%rsp), %eax                  # 4-byte Reload
	movl	%eax, 144(%rsp)
	movl	16(%rsp), %eax                  # 4-byte Reload
	movl	%eax, 136(%rsp)
	movl	40(%rsp), %eax                  # 4-byte Reload
	movl	%eax, 128(%rsp)
	leaq	352(%rsp), %rax
	movq	%rax, 400(%rsp)
	leaq	144(%rsp), %rax
	movq	%rax, 408(%rsp)
	leaq	136(%rsp), %rax
	movq	%rax, 416(%rsp)
	leaq	128(%rsp), %rax
	movq	%rax, 424(%rsp)
.Ltmp473:
	.cfi_escape 0x2e, 0x00
	leaq	288(%rsp), %rdi
	leaq	256(%rsp), %rsi
	leaq	240(%rsp), %rdx
	leaq	224(%rsp), %rcx
	callq	__hipPopCallConfiguration
.Ltmp474:
# %bb.113:                              # %.noexc264
	movq	288(%rsp), %rsi
	movl	296(%rsp), %edx
	movq	256(%rsp), %rcx
	movl	264(%rsp), %r8d
.Ltmp475:
	.cfi_escape 0x2e, 0x10
	leaq	400(%rsp), %r9
	movl	$_Z7add_oneIfiEvPT_T0_S2_S2_, %edi
	pushq	224(%rsp)
	.cfi_adjust_cfa_offset 8
	pushq	248(%rsp)
	.cfi_adjust_cfa_offset 8
	callq	hipLaunchKernel
	addq	$16, %rsp
	.cfi_adjust_cfa_offset -16
.Ltmp476:
.LBB6_114:
.Ltmp478:
	.cfi_escape 0x2e, 0x00
	leaq	400(%rsp), %rdi
	callq	hipEventCreate
.Ltmp479:
# %bb.115:
	movl	%eax, %ebx
	testl	%eax, %eax
	jne	.LBB6_116
# %bb.121:
	movq	400(%rsp), %rdi
	movq	88(%rsp), %rsi
.Ltmp489:
	.cfi_escape 0x2e, 0x00
	callq	hipEventRecord
.Ltmp490:
# %bb.122:
	movl	%eax, %ebx
	testl	%eax, %eax
	jne	.LBB6_123
# %bb.129:
	movq	400(%rsp), %rsi
.Ltmp500:
	.cfi_escape 0x2e, 0x00
	xorl	%edi, %edi
	xorl	%edx, %edx
	callq	hipStreamWaitEvent
.Ltmp501:
# %bb.130:
	movl	%eax, %ebx
	testl	%eax, %eax
	jne	.LBB6_131
# %bb.137:
.Ltmp511:
	.cfi_escape 0x2e, 0x00
	movabsq	$4294967516, %rdx               # imm = 0x1000000DC
	movq	%r12, %rdi
	movl	$1, %esi
	movl	$1, %ecx
	xorl	%r8d, %r8d
	xorl	%r9d, %r9d
	callq	__hipPushCallConfiguration
.Ltmp512:
# %bb.138:
	testl	%eax, %eax
	jne	.LBB6_140
# %bb.139:
	cmpb	$0, 7(%rsp)                     # 1-byte Folded Reload
	movq	104(%rsp), %rdi
	movq	80(%rsp), %rsi
	movq	96(%rsp), %rdx
	movl	$_Z25__device_stub__vector_addILb0EfiEvPKT0_S2_PS0_T1_S4_S4_, %eax
	movl	$_Z25__device_stub__vector_addILb1EfiEvPKT0_S2_PS0_T1_S4_S4_, %r10d
	cmoveq	%rax, %r10
.Ltmp513:
	.cfi_escape 0x2e, 0x00
	movl	20(%rsp), %ecx                  # 4-byte Reload
	movl	16(%rsp), %r8d                  # 4-byte Reload
	movl	40(%rsp), %r9d                  # 4-byte Reload
	callq	*%r10
.Ltmp514:
.LBB6_140:
.Ltmp515:
	.cfi_escape 0x2e, 0x00
	callq	hipDeviceSynchronize
.Ltmp516:
# %bb.141:
	movl	%eax, %ebx
	testl	%eax, %eax
	jne	.LBB6_142
# %bb.148:
	movq	96(%rsp), %rsi
.Ltmp526:
	.cfi_escape 0x2e, 0x00
	movq	%r14, %rdi
	movq	%rbp, %rdx
	movl	$2, %ecx
	callq	hipMemcpy
.Ltmp527:
# %bb.149:
	movl	%eax, %ebx
	testl	%eax, %eax
	jne	.LBB6_150
# %bb.156:
	movq	120(%rsp), %rdi
.Ltmp537:
	.cfi_escape 0x2e, 0x00
	callq	hipFree
.Ltmp538:
# %bb.157:
	movl	%eax, %ebx
	testl	%eax, %eax
	jne	.LBB6_158
# %bb.164:
	movq	104(%rsp), %rdi
.Ltmp548:
	.cfi_escape 0x2e, 0x00
	callq	hipFree
.Ltmp549:
# %bb.165:
	movl	%eax, %ebx
	testl	%eax, %eax
	jne	.LBB6_166
# %bb.172:
	movq	80(%rsp), %rdi
.Ltmp559:
	.cfi_escape 0x2e, 0x00
	callq	hipFree
.Ltmp560:
# %bb.173:
	movl	%eax, %ebx
	testl	%eax, %eax
	jne	.LBB6_174
# %bb.180:
	movq	96(%rsp), %rdi
.Ltmp570:
	.cfi_escape 0x2e, 0x00
	callq	hipFree
.Ltmp571:
# %bb.181:
	movl	%eax, %ebx
	testl	%eax, %eax
	jne	.LBB6_182
# %bb.188:
	movq	112(%rsp), %rdi
.Ltmp581:
	.cfi_escape 0x2e, 0x00
	callq	hipFree
.Ltmp582:
# %bb.189:
	movl	%eax, %ebx
	testl	%eax, %eax
	jne	.LBB6_190
# %bb.196:
	movq	400(%rsp), %rdi
.Ltmp592:
	.cfi_escape 0x2e, 0x00
	callq	hipEventDestroy
.Ltmp593:
# %bb.197:
	movl	%eax, %ebx
	testl	%eax, %eax
	jne	.LBB6_198
# %bb.204:
	movq	88(%rsp), %rdi
.Ltmp603:
	.cfi_escape 0x2e, 0x00
	callq	hipStreamDestroy
.Ltmp604:
# %bb.205:
	movl	%eax, %ebx
	testl	%eax, %eax
	jne	.LBB6_206
# %bb.212:
.Ltmp614:
	.cfi_escape 0x2e, 0x00
	movl	$_ZSt4cout, %edi
	movl	$.L.str.24, %esi
	movl	$7, %edx
	callq	_ZSt16__ostream_insertIcSt11char_traitsIcEERSt13basic_ostreamIT_T0_ES6_PKS3_l
.Ltmp615:
# %bb.213:                              # %_ZStlsISt11char_traitsIcEERSt13basic_ostreamIcT_ES5_PKc.exit315.preheader
	cmpq	%r15, %r14
	je	.LBB6_218
# %bb.214:
	movq	%r14, %rbx
	.p2align	4, 0x90
.LBB6_215:                              # %.lr.ph
                                        # =>This Inner Loop Header: Depth=1
	movss	(%rbx), %xmm0                   # xmm0 = mem[0],zero,zero,zero
	cvtss2sd	%xmm0, %xmm0
.Ltmp616:
	.cfi_escape 0x2e, 0x00
	movl	$_ZSt4cout, %edi
	callq	_ZNSo9_M_insertIdEERSoT_
.Ltmp617:
# %bb.216:                              # %_ZNSolsEf.exit
                                        #   in Loop: Header=BB6_215 Depth=1
.Ltmp618:
	.cfi_escape 0x2e, 0x00
	movl	$.L.str.17, %esi
	movl	$2, %edx
	movq	%rax, %rdi
	callq	_ZSt16__ostream_insertIcSt11char_traitsIcEERSt13basic_ostreamIT_T0_ES6_PKS3_l
.Ltmp619:
# %bb.217:                              # %_ZStlsISt11char_traitsIcEERSt13basic_ostreamIcT_ES5_PKc.exit320
                                        #   in Loop: Header=BB6_215 Depth=1
	addq	$4, %rbx
	cmpq	%r15, %rbx
	jne	.LBB6_215
.LBB6_218:                              # %_ZStlsISt11char_traitsIcEERSt13basic_ostreamIcT_ES5_PKc.exit315._crit_edge
.Ltmp621:
	.cfi_escape 0x2e, 0x00
	movl	$_ZSt4cout, %edi
	movl	$.L.str.18, %esi
	movl	$2, %edx
	callq	_ZSt16__ostream_insertIcSt11char_traitsIcEERSt13basic_ostreamIT_T0_ES6_PKS3_l
.Ltmp622:
# %bb.219:                              # %_ZStlsISt11char_traitsIcEERSt13basic_ostreamIcT_ES5_PKc.exit317
	testq	%r14, %r14
	je	.LBB6_221
# %bb.220:
	.cfi_escape 0x2e, 0x00
	movq	%r14, %rdi
	callq	_ZdlPv
.LBB6_221:                              # %_ZNSt6vectorIfSaIfEED2Ev.exit
	movq	24(%rsp), %rdi                  # 8-byte Reload
	testq	%rdi, %rdi
	je	.LBB6_223
# %bb.222:
	.cfi_escape 0x2e, 0x00
	callq	_ZdlPv
.LBB6_223:                              # %_ZNSt6vectorIfSaIfEED2Ev.exit322
	movq	56(%rsp), %rdi                  # 8-byte Reload
	testq	%rdi, %rdi
	je	.LBB6_225
# %bb.224:
	.cfi_escape 0x2e, 0x00
	callq	_ZdlPv
.LBB6_225:                              # %_ZNSt6vectorIfSaIfEED2Ev.exit324
	movq	32(%rsp), %rdi                  # 8-byte Reload
	testq	%rdi, %rdi
	je	.LBB6_227
# %bb.226:
	.cfi_escape 0x2e, 0x00
	callq	_ZdlPv
.LBB6_227:                              # %_ZNSt6vectorIfSaIfEED2Ev.exit326
	testq	%r13, %r13
	je	.LBB6_229
# %bb.228:
	.cfi_escape 0x2e, 0x00
	movq	%r13, %rdi
	callq	_ZdlPv
.LBB6_229:                              # %_ZNSt6vectorIfSaIfEED2Ev.exit328
	xorl	%eax, %eax
	addq	$584, %rsp                      # imm = 0x248
	.cfi_def_cfa_offset 56
	popq	%rbx
	.cfi_def_cfa_offset 48
	popq	%r12
	.cfi_def_cfa_offset 40
	popq	%r13
	.cfi_def_cfa_offset 32
	popq	%r14
	.cfi_def_cfa_offset 24
	popq	%r15
	.cfi_def_cfa_offset 16
	popq	%rbp
	.cfi_def_cfa_offset 8
	retq
.LBB6_242:                              # %.noexc
	.cfi_def_cfa_offset 640
	.cfi_escape 0x2e, 0x00
	movl	$.L.str.59, %edi
	callq	_ZSt20__throw_length_errorPKc
.LBB6_5:
.Ltmp627:
	.cfi_escape 0x2e, 0x00
	movl	$.L.str.59, %edi
	callq	_ZSt20__throw_length_errorPKc
.Ltmp628:
# %bb.6:                                # %.noexc170
.LBB6_32:
.Ltmp367:
	.cfi_escape 0x2e, 0x00
	movl	$_ZSt4cerr, %edi
	movl	$.L.str.23, %esi
	movl	$19, %edx
	callq	_ZSt16__ostream_insertIcSt11char_traitsIcEERSt13basic_ostreamIT_T0_ES6_PKS3_l
.Ltmp368:
# %bb.33:                               # %_ZStlsISt11char_traitsIcEERSt13basic_ostreamIcT_ES5_PKc.exit
.Ltmp369:
	.cfi_escape 0x2e, 0x00
	movl	%ebx, %edi
	callq	hipGetErrorString
.Ltmp370:
# %bb.34:
.Ltmp371:
	.cfi_escape 0x2e, 0x00
	movl	$_ZSt4cerr, %edi
	movq	%rax, %rsi
	callq	_ZStlsISt11char_traitsIcEERSt13basic_ostreamIcT_ES5_PKc
.Ltmp372:
# %bb.35:
.Ltmp373:
	.cfi_escape 0x2e, 0x00
	movq	%rax, %rdi
	callq	_ZSt4endlIcSt11char_traitsIcEERSt13basic_ostreamIT_T0_ES6_
.Ltmp374:
# %bb.36:                               # %_ZNSolsEPFRSoS_E.exit
	.cfi_escape 0x2e, 0x00
	callq	abort
.LBB6_44:
.Ltmp378:
	.cfi_escape 0x2e, 0x00
	movl	$_ZSt4cerr, %edi
	movl	$.L.str.23, %esi
	movl	$19, %edx
	callq	_ZSt16__ostream_insertIcSt11char_traitsIcEERSt13basic_ostreamIT_T0_ES6_PKS3_l
.Ltmp379:
# %bb.45:                               # %_ZStlsISt11char_traitsIcEERSt13basic_ostreamIcT_ES5_PKc.exit219
.Ltmp380:
	.cfi_escape 0x2e, 0x00
	movl	%ebx, %edi
	callq	hipGetErrorString
.Ltmp381:
# %bb.46:
.Ltmp382:
	.cfi_escape 0x2e, 0x00
	movl	$_ZSt4cerr, %edi
	movq	%rax, %rsi
	callq	_ZStlsISt11char_traitsIcEERSt13basic_ostreamIcT_ES5_PKc
.Ltmp383:
# %bb.47:
.Ltmp384:
	.cfi_escape 0x2e, 0x00
	movq	%rax, %rdi
	callq	_ZSt4endlIcSt11char_traitsIcEERSt13basic_ostreamIT_T0_ES6_
.Ltmp385:
# %bb.48:                               # %_ZNSolsEPFRSoS_E.exit221
	.cfi_escape 0x2e, 0x00
	callq	abort
.LBB6_52:
.Ltmp389:
	.cfi_escape 0x2e, 0x00
	movl	$_ZSt4cerr, %edi
	movl	$.L.str.23, %esi
	movl	$19, %edx
	callq	_ZSt16__ostream_insertIcSt11char_traitsIcEERSt13basic_ostreamIT_T0_ES6_PKS3_l
.Ltmp390:
# %bb.53:                               # %_ZStlsISt11char_traitsIcEERSt13basic_ostreamIcT_ES5_PKc.exit225
.Ltmp391:
	.cfi_escape 0x2e, 0x00
	movl	%ebx, %edi
	callq	hipGetErrorString
.Ltmp392:
# %bb.54:
.Ltmp393:
	.cfi_escape 0x2e, 0x00
	movl	$_ZSt4cerr, %edi
	movq	%rax, %rsi
	callq	_ZStlsISt11char_traitsIcEERSt13basic_ostreamIcT_ES5_PKc
.Ltmp394:
# %bb.55:
.Ltmp395:
	.cfi_escape 0x2e, 0x00
	movq	%rax, %rdi
	callq	_ZSt4endlIcSt11char_traitsIcEERSt13basic_ostreamIT_T0_ES6_
.Ltmp396:
# %bb.56:                               # %_ZNSolsEPFRSoS_E.exit227
	.cfi_escape 0x2e, 0x00
	callq	abort
.LBB6_60:
.Ltmp400:
	.cfi_escape 0x2e, 0x00
	movl	$_ZSt4cerr, %edi
	movl	$.L.str.23, %esi
	movl	$19, %edx
	callq	_ZSt16__ostream_insertIcSt11char_traitsIcEERSt13basic_ostreamIT_T0_ES6_PKS3_l
.Ltmp401:
# %bb.61:                               # %_ZStlsISt11char_traitsIcEERSt13basic_ostreamIcT_ES5_PKc.exit231
.Ltmp402:
	.cfi_escape 0x2e, 0x00
	movl	%ebx, %edi
	callq	hipGetErrorString
.Ltmp403:
# %bb.62:
.Ltmp404:
	.cfi_escape 0x2e, 0x00
	movl	$_ZSt4cerr, %edi
	movq	%rax, %rsi
	callq	_ZStlsISt11char_traitsIcEERSt13basic_ostreamIcT_ES5_PKc
.Ltmp405:
# %bb.63:
.Ltmp406:
	.cfi_escape 0x2e, 0x00
	movq	%rax, %rdi
	callq	_ZSt4endlIcSt11char_traitsIcEERSt13basic_ostreamIT_T0_ES6_
.Ltmp407:
# %bb.64:                               # %_ZNSolsEPFRSoS_E.exit233
	.cfi_escape 0x2e, 0x00
	callq	abort
.LBB6_68:
.Ltmp411:
	.cfi_escape 0x2e, 0x00
	movl	$_ZSt4cerr, %edi
	movl	$.L.str.23, %esi
	movl	$19, %edx
	callq	_ZSt16__ostream_insertIcSt11char_traitsIcEERSt13basic_ostreamIT_T0_ES6_PKS3_l
.Ltmp412:
# %bb.69:                               # %_ZStlsISt11char_traitsIcEERSt13basic_ostreamIcT_ES5_PKc.exit237
.Ltmp413:
	.cfi_escape 0x2e, 0x00
	movl	%ebx, %edi
	callq	hipGetErrorString
.Ltmp414:
# %bb.70:
.Ltmp415:
	.cfi_escape 0x2e, 0x00
	movl	$_ZSt4cerr, %edi
	movq	%rax, %rsi
	callq	_ZStlsISt11char_traitsIcEERSt13basic_ostreamIcT_ES5_PKc
.Ltmp416:
# %bb.71:
.Ltmp417:
	.cfi_escape 0x2e, 0x00
	movq	%rax, %rdi
	callq	_ZSt4endlIcSt11char_traitsIcEERSt13basic_ostreamIT_T0_ES6_
.Ltmp418:
# %bb.72:                               # %_ZNSolsEPFRSoS_E.exit239
	.cfi_escape 0x2e, 0x00
	callq	abort
.LBB6_76:
.Ltmp422:
	.cfi_escape 0x2e, 0x00
	movl	$_ZSt4cerr, %edi
	movl	$.L.str.23, %esi
	movl	$19, %edx
	callq	_ZSt16__ostream_insertIcSt11char_traitsIcEERSt13basic_ostreamIT_T0_ES6_PKS3_l
.Ltmp423:
# %bb.77:                               # %_ZStlsISt11char_traitsIcEERSt13basic_ostreamIcT_ES5_PKc.exit241
.Ltmp424:
	.cfi_escape 0x2e, 0x00
	movl	%ebx, %edi
	callq	hipGetErrorString
.Ltmp425:
# %bb.78:
.Ltmp426:
	.cfi_escape 0x2e, 0x00
	movl	$_ZSt4cerr, %edi
	movq	%rax, %rsi
	callq	_ZStlsISt11char_traitsIcEERSt13basic_ostreamIcT_ES5_PKc
.Ltmp427:
# %bb.79:
.Ltmp428:
	.cfi_escape 0x2e, 0x00
	movq	%rax, %rdi
	callq	_ZSt4endlIcSt11char_traitsIcEERSt13basic_ostreamIT_T0_ES6_
.Ltmp429:
# %bb.80:                               # %_ZNSolsEPFRSoS_E.exit243
	.cfi_escape 0x2e, 0x00
	callq	abort
.LBB6_84:
.Ltmp433:
	.cfi_escape 0x2e, 0x00
	movl	$_ZSt4cerr, %edi
	movl	$.L.str.23, %esi
	movl	$19, %edx
	callq	_ZSt16__ostream_insertIcSt11char_traitsIcEERSt13basic_ostreamIT_T0_ES6_PKS3_l
.Ltmp434:
# %bb.85:                               # %_ZStlsISt11char_traitsIcEERSt13basic_ostreamIcT_ES5_PKc.exit245
.Ltmp435:
	.cfi_escape 0x2e, 0x00
	movl	%ebx, %edi
	callq	hipGetErrorString
.Ltmp436:
# %bb.86:
.Ltmp437:
	.cfi_escape 0x2e, 0x00
	movl	$_ZSt4cerr, %edi
	movq	%rax, %rsi
	callq	_ZStlsISt11char_traitsIcEERSt13basic_ostreamIcT_ES5_PKc
.Ltmp438:
# %bb.87:
.Ltmp439:
	.cfi_escape 0x2e, 0x00
	movq	%rax, %rdi
	callq	_ZSt4endlIcSt11char_traitsIcEERSt13basic_ostreamIT_T0_ES6_
.Ltmp440:
# %bb.88:                               # %_ZNSolsEPFRSoS_E.exit247
	.cfi_escape 0x2e, 0x00
	callq	abort
.LBB6_92:
.Ltmp444:
	.cfi_escape 0x2e, 0x00
	movl	$_ZSt4cerr, %edi
	movl	$.L.str.23, %esi
	movl	$19, %edx
	callq	_ZSt16__ostream_insertIcSt11char_traitsIcEERSt13basic_ostreamIT_T0_ES6_PKS3_l
.Ltmp445:
# %bb.93:                               # %_ZStlsISt11char_traitsIcEERSt13basic_ostreamIcT_ES5_PKc.exit249
.Ltmp446:
	.cfi_escape 0x2e, 0x00
	movl	%ebx, %edi
	callq	hipGetErrorString
.Ltmp447:
# %bb.94:
.Ltmp448:
	.cfi_escape 0x2e, 0x00
	movl	$_ZSt4cerr, %edi
	movq	%rax, %rsi
	callq	_ZStlsISt11char_traitsIcEERSt13basic_ostreamIcT_ES5_PKc
.Ltmp449:
# %bb.95:
.Ltmp450:
	.cfi_escape 0x2e, 0x00
	movq	%rax, %rdi
	callq	_ZSt4endlIcSt11char_traitsIcEERSt13basic_ostreamIT_T0_ES6_
.Ltmp451:
# %bb.96:                               # %_ZNSolsEPFRSoS_E.exit251
	.cfi_escape 0x2e, 0x00
	callq	abort
.LBB6_100:
.Ltmp455:
	.cfi_escape 0x2e, 0x00
	movl	$_ZSt4cerr, %edi
	movl	$.L.str.23, %esi
	movl	$19, %edx
	callq	_ZSt16__ostream_insertIcSt11char_traitsIcEERSt13basic_ostreamIT_T0_ES6_PKS3_l
.Ltmp456:
# %bb.101:                              # %_ZStlsISt11char_traitsIcEERSt13basic_ostreamIcT_ES5_PKc.exit253
.Ltmp457:
	.cfi_escape 0x2e, 0x00
	movl	%ebx, %edi
	callq	hipGetErrorString
.Ltmp458:
# %bb.102:
.Ltmp459:
	.cfi_escape 0x2e, 0x00
	movl	$_ZSt4cerr, %edi
	movq	%rax, %rsi
	callq	_ZStlsISt11char_traitsIcEERSt13basic_ostreamIcT_ES5_PKc
.Ltmp460:
# %bb.103:
.Ltmp461:
	.cfi_escape 0x2e, 0x00
	movq	%rax, %rdi
	callq	_ZSt4endlIcSt11char_traitsIcEERSt13basic_ostreamIT_T0_ES6_
.Ltmp462:
# %bb.104:                              # %_ZNSolsEPFRSoS_E.exit255
	.cfi_escape 0x2e, 0x00
	callq	abort
.LBB6_116:
.Ltmp480:
	.cfi_escape 0x2e, 0x00
	movl	$_ZSt4cerr, %edi
	movl	$.L.str.23, %esi
	movl	$19, %edx
	callq	_ZSt16__ostream_insertIcSt11char_traitsIcEERSt13basic_ostreamIT_T0_ES6_PKS3_l
.Ltmp481:
# %bb.117:                              # %_ZStlsISt11char_traitsIcEERSt13basic_ostreamIcT_ES5_PKc.exit267
.Ltmp482:
	.cfi_escape 0x2e, 0x00
	movl	%ebx, %edi
	callq	hipGetErrorString
.Ltmp483:
# %bb.118:
.Ltmp484:
	.cfi_escape 0x2e, 0x00
	movl	$_ZSt4cerr, %edi
	movq	%rax, %rsi
	callq	_ZStlsISt11char_traitsIcEERSt13basic_ostreamIcT_ES5_PKc
.Ltmp485:
# %bb.119:
.Ltmp486:
	.cfi_escape 0x2e, 0x00
	movq	%rax, %rdi
	callq	_ZSt4endlIcSt11char_traitsIcEERSt13basic_ostreamIT_T0_ES6_
.Ltmp487:
# %bb.120:                              # %_ZNSolsEPFRSoS_E.exit269
	.cfi_escape 0x2e, 0x00
	callq	abort
.LBB6_123:
.Ltmp491:
	.cfi_escape 0x2e, 0x00
	movl	$_ZSt4cerr, %edi
	movl	$.L.str.23, %esi
	movl	$19, %edx
	callq	_ZSt16__ostream_insertIcSt11char_traitsIcEERSt13basic_ostreamIT_T0_ES6_PKS3_l
.Ltmp492:
# %bb.124:                              # %_ZStlsISt11char_traitsIcEERSt13basic_ostreamIcT_ES5_PKc.exit271
.Ltmp493:
	.cfi_escape 0x2e, 0x00
	movl	%ebx, %edi
	callq	hipGetErrorString
.Ltmp494:
# %bb.125:
.Ltmp495:
	.cfi_escape 0x2e, 0x00
	movl	$_ZSt4cerr, %edi
	movq	%rax, %rsi
	callq	_ZStlsISt11char_traitsIcEERSt13basic_ostreamIcT_ES5_PKc
.Ltmp496:
# %bb.126:
.Ltmp497:
	.cfi_escape 0x2e, 0x00
	movq	%rax, %rdi
	callq	_ZSt4endlIcSt11char_traitsIcEERSt13basic_ostreamIT_T0_ES6_
.Ltmp498:
# %bb.127:                              # %_ZNSolsEPFRSoS_E.exit273
	.cfi_escape 0x2e, 0x00
	callq	abort
.LBB6_131:
.Ltmp502:
	.cfi_escape 0x2e, 0x00
	movl	$_ZSt4cerr, %edi
	movl	$.L.str.23, %esi
	movl	$19, %edx
	callq	_ZSt16__ostream_insertIcSt11char_traitsIcEERSt13basic_ostreamIT_T0_ES6_PKS3_l
.Ltmp503:
# %bb.132:                              # %_ZStlsISt11char_traitsIcEERSt13basic_ostreamIcT_ES5_PKc.exit275
.Ltmp504:
	.cfi_escape 0x2e, 0x00
	movl	%ebx, %edi
	callq	hipGetErrorString
.Ltmp505:
# %bb.133:
.Ltmp506:
	.cfi_escape 0x2e, 0x00
	movl	$_ZSt4cerr, %edi
	movq	%rax, %rsi
	callq	_ZStlsISt11char_traitsIcEERSt13basic_ostreamIcT_ES5_PKc
.Ltmp507:
# %bb.134:
.Ltmp508:
	.cfi_escape 0x2e, 0x00
	movq	%rax, %rdi
	callq	_ZSt4endlIcSt11char_traitsIcEERSt13basic_ostreamIT_T0_ES6_
.Ltmp509:
# %bb.135:                              # %_ZNSolsEPFRSoS_E.exit277
	.cfi_escape 0x2e, 0x00
	callq	abort
.LBB6_142:
.Ltmp517:
	.cfi_escape 0x2e, 0x00
	movl	$_ZSt4cerr, %edi
	movl	$.L.str.23, %esi
	movl	$19, %edx
	callq	_ZSt16__ostream_insertIcSt11char_traitsIcEERSt13basic_ostreamIT_T0_ES6_PKS3_l
.Ltmp518:
# %bb.143:                              # %_ZStlsISt11char_traitsIcEERSt13basic_ostreamIcT_ES5_PKc.exit279
.Ltmp519:
	.cfi_escape 0x2e, 0x00
	movl	%ebx, %edi
	callq	hipGetErrorString
.Ltmp520:
# %bb.144:
.Ltmp521:
	.cfi_escape 0x2e, 0x00
	movl	$_ZSt4cerr, %edi
	movq	%rax, %rsi
	callq	_ZStlsISt11char_traitsIcEERSt13basic_ostreamIcT_ES5_PKc
.Ltmp522:
# %bb.145:
.Ltmp523:
	.cfi_escape 0x2e, 0x00
	movq	%rax, %rdi
	callq	_ZSt4endlIcSt11char_traitsIcEERSt13basic_ostreamIT_T0_ES6_
.Ltmp524:
# %bb.146:                              # %_ZNSolsEPFRSoS_E.exit281
	.cfi_escape 0x2e, 0x00
	callq	abort
.LBB6_150:
.Ltmp528:
	.cfi_escape 0x2e, 0x00
	movl	$_ZSt4cerr, %edi
	movl	$.L.str.23, %esi
	movl	$19, %edx
	callq	_ZSt16__ostream_insertIcSt11char_traitsIcEERSt13basic_ostreamIT_T0_ES6_PKS3_l
.Ltmp529:
# %bb.151:                              # %_ZStlsISt11char_traitsIcEERSt13basic_ostreamIcT_ES5_PKc.exit283
.Ltmp530:
	.cfi_escape 0x2e, 0x00
	movl	%ebx, %edi
	callq	hipGetErrorString
.Ltmp531:
# %bb.152:
.Ltmp532:
	.cfi_escape 0x2e, 0x00
	movl	$_ZSt4cerr, %edi
	movq	%rax, %rsi
	callq	_ZStlsISt11char_traitsIcEERSt13basic_ostreamIcT_ES5_PKc
.Ltmp533:
# %bb.153:
.Ltmp534:
	.cfi_escape 0x2e, 0x00
	movq	%rax, %rdi
	callq	_ZSt4endlIcSt11char_traitsIcEERSt13basic_ostreamIT_T0_ES6_
.Ltmp535:
# %bb.154:                              # %_ZNSolsEPFRSoS_E.exit285
	.cfi_escape 0x2e, 0x00
	callq	abort
.LBB6_158:
.Ltmp539:
	.cfi_escape 0x2e, 0x00
	movl	$_ZSt4cerr, %edi
	movl	$.L.str.23, %esi
	movl	$19, %edx
	callq	_ZSt16__ostream_insertIcSt11char_traitsIcEERSt13basic_ostreamIT_T0_ES6_PKS3_l
.Ltmp540:
# %bb.159:                              # %_ZStlsISt11char_traitsIcEERSt13basic_ostreamIcT_ES5_PKc.exit287
.Ltmp541:
	.cfi_escape 0x2e, 0x00
	movl	%ebx, %edi
	callq	hipGetErrorString
.Ltmp542:
# %bb.160:
.Ltmp543:
	.cfi_escape 0x2e, 0x00
	movl	$_ZSt4cerr, %edi
	movq	%rax, %rsi
	callq	_ZStlsISt11char_traitsIcEERSt13basic_ostreamIcT_ES5_PKc
.Ltmp544:
# %bb.161:
.Ltmp545:
	.cfi_escape 0x2e, 0x00
	movq	%rax, %rdi
	callq	_ZSt4endlIcSt11char_traitsIcEERSt13basic_ostreamIT_T0_ES6_
.Ltmp546:
# %bb.162:                              # %_ZNSolsEPFRSoS_E.exit289
	.cfi_escape 0x2e, 0x00
	callq	abort
.LBB6_166:
.Ltmp550:
	.cfi_escape 0x2e, 0x00
	movl	$_ZSt4cerr, %edi
	movl	$.L.str.23, %esi
	movl	$19, %edx
	callq	_ZSt16__ostream_insertIcSt11char_traitsIcEERSt13basic_ostreamIT_T0_ES6_PKS3_l
.Ltmp551:
# %bb.167:                              # %_ZStlsISt11char_traitsIcEERSt13basic_ostreamIcT_ES5_PKc.exit291
.Ltmp552:
	.cfi_escape 0x2e, 0x00
	movl	%ebx, %edi
	callq	hipGetErrorString
.Ltmp553:
# %bb.168:
.Ltmp554:
	.cfi_escape 0x2e, 0x00
	movl	$_ZSt4cerr, %edi
	movq	%rax, %rsi
	callq	_ZStlsISt11char_traitsIcEERSt13basic_ostreamIcT_ES5_PKc
.Ltmp555:
# %bb.169:
.Ltmp556:
	.cfi_escape 0x2e, 0x00
	movq	%rax, %rdi
	callq	_ZSt4endlIcSt11char_traitsIcEERSt13basic_ostreamIT_T0_ES6_
.Ltmp557:
# %bb.170:                              # %_ZNSolsEPFRSoS_E.exit293
	.cfi_escape 0x2e, 0x00
	callq	abort
.LBB6_174:
.Ltmp561:
	.cfi_escape 0x2e, 0x00
	movl	$_ZSt4cerr, %edi
	movl	$.L.str.23, %esi
	movl	$19, %edx
	callq	_ZSt16__ostream_insertIcSt11char_traitsIcEERSt13basic_ostreamIT_T0_ES6_PKS3_l
.Ltmp562:
# %bb.175:                              # %_ZStlsISt11char_traitsIcEERSt13basic_ostreamIcT_ES5_PKc.exit295
.Ltmp563:
	.cfi_escape 0x2e, 0x00
	movl	%ebx, %edi
	callq	hipGetErrorString
.Ltmp564:
# %bb.176:
.Ltmp565:
	.cfi_escape 0x2e, 0x00
	movl	$_ZSt4cerr, %edi
	movq	%rax, %rsi
	callq	_ZStlsISt11char_traitsIcEERSt13basic_ostreamIcT_ES5_PKc
.Ltmp566:
# %bb.177:
.Ltmp567:
	.cfi_escape 0x2e, 0x00
	movq	%rax, %rdi
	callq	_ZSt4endlIcSt11char_traitsIcEERSt13basic_ostreamIT_T0_ES6_
.Ltmp568:
# %bb.178:                              # %_ZNSolsEPFRSoS_E.exit297
	.cfi_escape 0x2e, 0x00
	callq	abort
.LBB6_182:
.Ltmp572:
	.cfi_escape 0x2e, 0x00
	movl	$_ZSt4cerr, %edi
	movl	$.L.str.23, %esi
	movl	$19, %edx
	callq	_ZSt16__ostream_insertIcSt11char_traitsIcEERSt13basic_ostreamIT_T0_ES6_PKS3_l
.Ltmp573:
# %bb.183:                              # %_ZStlsISt11char_traitsIcEERSt13basic_ostreamIcT_ES5_PKc.exit299
.Ltmp574:
	.cfi_escape 0x2e, 0x00
	movl	%ebx, %edi
	callq	hipGetErrorString
.Ltmp575:
# %bb.184:
.Ltmp576:
	.cfi_escape 0x2e, 0x00
	movl	$_ZSt4cerr, %edi
	movq	%rax, %rsi
	callq	_ZStlsISt11char_traitsIcEERSt13basic_ostreamIcT_ES5_PKc
.Ltmp577:
# %bb.185:
.Ltmp578:
	.cfi_escape 0x2e, 0x00
	movq	%rax, %rdi
	callq	_ZSt4endlIcSt11char_traitsIcEERSt13basic_ostreamIT_T0_ES6_
.Ltmp579:
# %bb.186:                              # %_ZNSolsEPFRSoS_E.exit301
	.cfi_escape 0x2e, 0x00
	callq	abort
.LBB6_190:
.Ltmp583:
	.cfi_escape 0x2e, 0x00
	movl	$_ZSt4cerr, %edi
	movl	$.L.str.23, %esi
	movl	$19, %edx
	callq	_ZSt16__ostream_insertIcSt11char_traitsIcEERSt13basic_ostreamIT_T0_ES6_PKS3_l
.Ltmp584:
# %bb.191:                              # %_ZStlsISt11char_traitsIcEERSt13basic_ostreamIcT_ES5_PKc.exit303
.Ltmp585:
	.cfi_escape 0x2e, 0x00
	movl	%ebx, %edi
	callq	hipGetErrorString
.Ltmp586:
# %bb.192:
.Ltmp587:
	.cfi_escape 0x2e, 0x00
	movl	$_ZSt4cerr, %edi
	movq	%rax, %rsi
	callq	_ZStlsISt11char_traitsIcEERSt13basic_ostreamIcT_ES5_PKc
.Ltmp588:
# %bb.193:
.Ltmp589:
	.cfi_escape 0x2e, 0x00
	movq	%rax, %rdi
	callq	_ZSt4endlIcSt11char_traitsIcEERSt13basic_ostreamIT_T0_ES6_
.Ltmp590:
# %bb.194:                              # %_ZNSolsEPFRSoS_E.exit305
	.cfi_escape 0x2e, 0x00
	callq	abort
.LBB6_198:
.Ltmp594:
	.cfi_escape 0x2e, 0x00
	movl	$_ZSt4cerr, %edi
	movl	$.L.str.23, %esi
	movl	$19, %edx
	callq	_ZSt16__ostream_insertIcSt11char_traitsIcEERSt13basic_ostreamIT_T0_ES6_PKS3_l
.Ltmp595:
# %bb.199:                              # %_ZStlsISt11char_traitsIcEERSt13basic_ostreamIcT_ES5_PKc.exit307
.Ltmp596:
	.cfi_escape 0x2e, 0x00
	movl	%ebx, %edi
	callq	hipGetErrorString
.Ltmp597:
# %bb.200:
.Ltmp598:
	.cfi_escape 0x2e, 0x00
	movl	$_ZSt4cerr, %edi
	movq	%rax, %rsi
	callq	_ZStlsISt11char_traitsIcEERSt13basic_ostreamIcT_ES5_PKc
.Ltmp599:
# %bb.201:
.Ltmp600:
	.cfi_escape 0x2e, 0x00
	movq	%rax, %rdi
	callq	_ZSt4endlIcSt11char_traitsIcEERSt13basic_ostreamIT_T0_ES6_
.Ltmp601:
# %bb.202:                              # %_ZNSolsEPFRSoS_E.exit309
	.cfi_escape 0x2e, 0x00
	callq	abort
.LBB6_206:
.Ltmp605:
	.cfi_escape 0x2e, 0x00
	movl	$_ZSt4cerr, %edi
	movl	$.L.str.23, %esi
	movl	$19, %edx
	callq	_ZSt16__ostream_insertIcSt11char_traitsIcEERSt13basic_ostreamIT_T0_ES6_PKS3_l
.Ltmp606:
# %bb.207:                              # %_ZStlsISt11char_traitsIcEERSt13basic_ostreamIcT_ES5_PKc.exit311
.Ltmp607:
	.cfi_escape 0x2e, 0x00
	movl	%ebx, %edi
	callq	hipGetErrorString
.Ltmp608:
# %bb.208:
.Ltmp609:
	.cfi_escape 0x2e, 0x00
	movl	$_ZSt4cerr, %edi
	movq	%rax, %rsi
	callq	_ZStlsISt11char_traitsIcEERSt13basic_ostreamIcT_ES5_PKc
.Ltmp610:
# %bb.209:
.Ltmp611:
	.cfi_escape 0x2e, 0x00
	movq	%rax, %rdi
	callq	_ZSt4endlIcSt11char_traitsIcEERSt13basic_ostreamIT_T0_ES6_
.Ltmp612:
# %bb.210:                              # %_ZNSolsEPFRSoS_E.exit313
	.cfi_escape 0x2e, 0x00
	callq	abort
.LBB6_40:                               # %_ZNSt6vectorIfSaIfEED2Ev.exit330.thread
.Ltmp364:
	movq	%rax, %rbx
	movq	%r14, %rdi
	jmp	.LBB6_234
.LBB6_39:                               # %_ZNSt6vectorIfSaIfEED2Ev.exit332.thread
.Ltmp361:
	movq	%rax, %rbx
	jmp	.LBB6_236
.LBB6_38:
.Ltmp626:
	movq	%rax, %rbx
	movq	32(%rsp), %rdi                  # 8-byte Reload
	testq	%rdi, %rdi
	je	.LBB6_239
	jmp	.LBB6_238
.LBB6_37:
.Ltmp629:
	movq	%rax, %rbx
	movq	8(%rsp), %rdi                   # 8-byte Reload
	testq	%rdi, %rdi
	je	.LBB6_241
	jmp	.LBB6_240
.LBB6_244:
.Ltmp477:
	jmp	.LBB6_231
.LBB6_243:
.Ltmp470:
	jmp	.LBB6_231
.LBB6_211:
.Ltmp613:
	jmp	.LBB6_231
.LBB6_203:
.Ltmp602:
	jmp	.LBB6_231
.LBB6_195:
.Ltmp591:
	jmp	.LBB6_231
.LBB6_187:
.Ltmp580:
	jmp	.LBB6_231
.LBB6_179:
.Ltmp569:
	jmp	.LBB6_231
.LBB6_171:
.Ltmp558:
	jmp	.LBB6_231
.LBB6_163:
.Ltmp547:
	jmp	.LBB6_231
.LBB6_155:
.Ltmp536:
	jmp	.LBB6_231
.LBB6_147:
.Ltmp525:
	jmp	.LBB6_231
.LBB6_136:
.Ltmp510:
	jmp	.LBB6_231
.LBB6_128:
.Ltmp499:
	jmp	.LBB6_231
.LBB6_230:
.Ltmp488:
	jmp	.LBB6_231
.LBB6_105:
.Ltmp463:
	jmp	.LBB6_231
.LBB6_97:
.Ltmp452:
	jmp	.LBB6_231
.LBB6_89:
.Ltmp441:
	jmp	.LBB6_231
.LBB6_81:
.Ltmp430:
	jmp	.LBB6_231
.LBB6_73:
.Ltmp419:
	jmp	.LBB6_231
.LBB6_65:
.Ltmp408:
	jmp	.LBB6_231
.LBB6_57:
.Ltmp397:
	jmp	.LBB6_231
.LBB6_49:
.Ltmp386:
	jmp	.LBB6_231
.LBB6_41:
.Ltmp375:
	jmp	.LBB6_231
.LBB6_245:
.Ltmp623:
	jmp	.LBB6_231
.LBB6_246:
.Ltmp620:
.LBB6_231:
	movq	%rax, %rbx
	movq	64(%rsp), %rdi                  # 8-byte Reload
	testq	%rdi, %rdi
	jne	.LBB6_232
# %bb.233:                              # %_ZNSt6vectorIfSaIfEED2Ev.exit330
	movq	24(%rsp), %rdi                  # 8-byte Reload
	testq	%rdi, %rdi
	jne	.LBB6_234
.LBB6_235:                              # %_ZNSt6vectorIfSaIfEED2Ev.exit332
	movq	56(%rsp), %rbp                  # 8-byte Reload
	testq	%rbp, %rbp
	jne	.LBB6_236
.LBB6_237:                              # %_ZNSt6vectorIfSaIfEED2Ev.exit334
	movq	32(%rsp), %rdi                  # 8-byte Reload
	testq	%rdi, %rdi
	jne	.LBB6_238
.LBB6_239:                              # %_ZNSt6vectorIfSaIfEED2Ev.exit336
	movq	8(%rsp), %rdi                   # 8-byte Reload
	testq	%rdi, %rdi
	jne	.LBB6_240
.LBB6_241:                              # %_ZNSt6vectorIfSaIfEED2Ev.exit338
	.cfi_escape 0x2e, 0x00
	movq	%rbx, %rdi
	callq	_Unwind_Resume@PLT
.LBB6_232:
	.cfi_escape 0x2e, 0x00
	callq	_ZdlPv
	movq	24(%rsp), %rdi                  # 8-byte Reload
	testq	%rdi, %rdi
	je	.LBB6_235
.LBB6_234:
	.cfi_escape 0x2e, 0x00
	callq	_ZdlPv
	movq	56(%rsp), %rbp                  # 8-byte Reload
	testq	%rbp, %rbp
	je	.LBB6_237
.LBB6_236:
	.cfi_escape 0x2e, 0x00
	movq	%rbp, %rdi
	callq	_ZdlPv
	movq	32(%rsp), %rdi                  # 8-byte Reload
	testq	%rdi, %rdi
	je	.LBB6_239
.LBB6_238:
	.cfi_escape 0x2e, 0x00
	callq	_ZdlPv
	movq	8(%rsp), %rdi                   # 8-byte Reload
	testq	%rdi, %rdi
	je	.LBB6_241
.LBB6_240:
	.cfi_escape 0x2e, 0x00
	callq	_ZdlPv
	.cfi_escape 0x2e, 0x00
	movq	%rbx, %rdi
	callq	_Unwind_Resume@PLT
.Lfunc_end6:
	.size	main, .Lfunc_end6-main
	.cfi_endproc
	.section	.gcc_except_table,"a",@progbits
	.p2align	2, 0x0
GCC_except_table6:
.Lexception4:
	.byte	255                             # @LPStart Encoding = omit
	.byte	255                             # @TType Encoding = omit
	.byte	1                               # Call site Encoding = uleb128
	.uleb128 .Lcst_end4-.Lcst_begin4
.Lcst_begin4:
	.uleb128 .Lfunc_begin4-.Lfunc_begin4    # >> Call Site 1 <<
	.uleb128 .Ltmp355-.Lfunc_begin4         #   Call between .Lfunc_begin4 and .Ltmp355
	.byte	0                               #     has no landing pad
	.byte	0                               #   On action: cleanup
	.uleb128 .Ltmp355-.Lfunc_begin4         # >> Call Site 2 <<
	.uleb128 .Ltmp356-.Ltmp355              #   Call between .Ltmp355 and .Ltmp356
	.uleb128 .Ltmp629-.Lfunc_begin4         #     jumps to .Ltmp629
	.byte	0                               #   On action: cleanup
	.uleb128 .Ltmp356-.Lfunc_begin4         # >> Call Site 3 <<
	.uleb128 .Ltmp357-.Ltmp356              #   Call between .Ltmp356 and .Ltmp357
	.byte	0                               #     has no landing pad
	.byte	0                               #   On action: cleanup
	.uleb128 .Ltmp357-.Lfunc_begin4         # >> Call Site 4 <<
	.uleb128 .Ltmp358-.Ltmp357              #   Call between .Ltmp357 and .Ltmp358
	.uleb128 .Ltmp626-.Lfunc_begin4         #     jumps to .Ltmp626
	.byte	0                               #   On action: cleanup
	.uleb128 .Ltmp358-.Lfunc_begin4         # >> Call Site 5 <<
	.uleb128 .Ltmp359-.Ltmp358              #   Call between .Ltmp358 and .Ltmp359
	.byte	0                               #     has no landing pad
	.byte	0                               #   On action: cleanup
	.uleb128 .Ltmp359-.Lfunc_begin4         # >> Call Site 6 <<
	.uleb128 .Ltmp360-.Ltmp359              #   Call between .Ltmp359 and .Ltmp360
	.uleb128 .Ltmp361-.Lfunc_begin4         #     jumps to .Ltmp361
	.byte	0                               #   On action: cleanup
	.uleb128 .Ltmp360-.Lfunc_begin4         # >> Call Site 7 <<
	.uleb128 .Ltmp362-.Ltmp360              #   Call between .Ltmp360 and .Ltmp362
	.byte	0                               #     has no landing pad
	.byte	0                               #   On action: cleanup
	.uleb128 .Ltmp362-.Lfunc_begin4         # >> Call Site 8 <<
	.uleb128 .Ltmp363-.Ltmp362              #   Call between .Ltmp362 and .Ltmp363
	.uleb128 .Ltmp364-.Lfunc_begin4         #     jumps to .Ltmp364
	.byte	0                               #   On action: cleanup
	.uleb128 .Ltmp363-.Lfunc_begin4         # >> Call Site 9 <<
	.uleb128 .Ltmp624-.Ltmp363              #   Call between .Ltmp363 and .Ltmp624
	.byte	0                               #     has no landing pad
	.byte	0                               #   On action: cleanup
	.uleb128 .Ltmp624-.Lfunc_begin4         # >> Call Site 10 <<
	.uleb128 .Ltmp625-.Ltmp624              #   Call between .Ltmp624 and .Ltmp625
	.uleb128 .Ltmp626-.Lfunc_begin4         #     jumps to .Ltmp626
	.byte	0                               #   On action: cleanup
	.uleb128 .Ltmp625-.Lfunc_begin4         # >> Call Site 11 <<
	.uleb128 .Ltmp365-.Ltmp625              #   Call between .Ltmp625 and .Ltmp365
	.byte	0                               #     has no landing pad
	.byte	0                               #   On action: cleanup
	.uleb128 .Ltmp365-.Lfunc_begin4         # >> Call Site 12 <<
	.uleb128 .Ltmp366-.Ltmp365              #   Call between .Ltmp365 and .Ltmp366
	.uleb128 .Ltmp375-.Lfunc_begin4         #     jumps to .Ltmp375
	.byte	0                               #   On action: cleanup
	.uleb128 .Ltmp376-.Lfunc_begin4         # >> Call Site 13 <<
	.uleb128 .Ltmp377-.Ltmp376              #   Call between .Ltmp376 and .Ltmp377
	.uleb128 .Ltmp386-.Lfunc_begin4         #     jumps to .Ltmp386
	.byte	0                               #   On action: cleanup
	.uleb128 .Ltmp387-.Lfunc_begin4         # >> Call Site 14 <<
	.uleb128 .Ltmp388-.Ltmp387              #   Call between .Ltmp387 and .Ltmp388
	.uleb128 .Ltmp397-.Lfunc_begin4         #     jumps to .Ltmp397
	.byte	0                               #   On action: cleanup
	.uleb128 .Ltmp398-.Lfunc_begin4         # >> Call Site 15 <<
	.uleb128 .Ltmp399-.Ltmp398              #   Call between .Ltmp398 and .Ltmp399
	.uleb128 .Ltmp408-.Lfunc_begin4         #     jumps to .Ltmp408
	.byte	0                               #   On action: cleanup
	.uleb128 .Ltmp409-.Lfunc_begin4         # >> Call Site 16 <<
	.uleb128 .Ltmp410-.Ltmp409              #   Call between .Ltmp409 and .Ltmp410
	.uleb128 .Ltmp419-.Lfunc_begin4         #     jumps to .Ltmp419
	.byte	0                               #   On action: cleanup
	.uleb128 .Ltmp420-.Lfunc_begin4         # >> Call Site 17 <<
	.uleb128 .Ltmp421-.Ltmp420              #   Call between .Ltmp420 and .Ltmp421
	.uleb128 .Ltmp430-.Lfunc_begin4         #     jumps to .Ltmp430
	.byte	0                               #   On action: cleanup
	.uleb128 .Ltmp431-.Lfunc_begin4         # >> Call Site 18 <<
	.uleb128 .Ltmp432-.Ltmp431              #   Call between .Ltmp431 and .Ltmp432
	.uleb128 .Ltmp441-.Lfunc_begin4         #     jumps to .Ltmp441
	.byte	0                               #   On action: cleanup
	.uleb128 .Ltmp442-.Lfunc_begin4         # >> Call Site 19 <<
	.uleb128 .Ltmp443-.Ltmp442              #   Call between .Ltmp442 and .Ltmp443
	.uleb128 .Ltmp452-.Lfunc_begin4         #     jumps to .Ltmp452
	.byte	0                               #   On action: cleanup
	.uleb128 .Ltmp453-.Lfunc_begin4         # >> Call Site 20 <<
	.uleb128 .Ltmp454-.Ltmp453              #   Call between .Ltmp453 and .Ltmp454
	.uleb128 .Ltmp463-.Lfunc_begin4         #     jumps to .Ltmp463
	.byte	0                               #   On action: cleanup
	.uleb128 .Ltmp464-.Lfunc_begin4         # >> Call Site 21 <<
	.uleb128 .Ltmp469-.Ltmp464              #   Call between .Ltmp464 and .Ltmp469
	.uleb128 .Ltmp470-.Lfunc_begin4         #     jumps to .Ltmp470
	.byte	0                               #   On action: cleanup
	.uleb128 .Ltmp471-.Lfunc_begin4         # >> Call Site 22 <<
	.uleb128 .Ltmp476-.Ltmp471              #   Call between .Ltmp471 and .Ltmp476
	.uleb128 .Ltmp477-.Lfunc_begin4         #     jumps to .Ltmp477
	.byte	0                               #   On action: cleanup
	.uleb128 .Ltmp478-.Lfunc_begin4         # >> Call Site 23 <<
	.uleb128 .Ltmp479-.Ltmp478              #   Call between .Ltmp478 and .Ltmp479
	.uleb128 .Ltmp488-.Lfunc_begin4         #     jumps to .Ltmp488
	.byte	0                               #   On action: cleanup
	.uleb128 .Ltmp489-.Lfunc_begin4         # >> Call Site 24 <<
	.uleb128 .Ltmp490-.Ltmp489              #   Call between .Ltmp489 and .Ltmp490
	.uleb128 .Ltmp499-.Lfunc_begin4         #     jumps to .Ltmp499
	.byte	0                               #   On action: cleanup
	.uleb128 .Ltmp500-.Lfunc_begin4         # >> Call Site 25 <<
	.uleb128 .Ltmp501-.Ltmp500              #   Call between .Ltmp500 and .Ltmp501
	.uleb128 .Ltmp510-.Lfunc_begin4         #     jumps to .Ltmp510
	.byte	0                               #   On action: cleanup
	.uleb128 .Ltmp511-.Lfunc_begin4         # >> Call Site 26 <<
	.uleb128 .Ltmp514-.Ltmp511              #   Call between .Ltmp511 and .Ltmp514
	.uleb128 .Ltmp623-.Lfunc_begin4         #     jumps to .Ltmp623
	.byte	0                               #   On action: cleanup
	.uleb128 .Ltmp515-.Lfunc_begin4         # >> Call Site 27 <<
	.uleb128 .Ltmp516-.Ltmp515              #   Call between .Ltmp515 and .Ltmp516
	.uleb128 .Ltmp525-.Lfunc_begin4         #     jumps to .Ltmp525
	.byte	0                               #   On action: cleanup
	.uleb128 .Ltmp526-.Lfunc_begin4         # >> Call Site 28 <<
	.uleb128 .Ltmp527-.Ltmp526              #   Call between .Ltmp526 and .Ltmp527
	.uleb128 .Ltmp536-.Lfunc_begin4         #     jumps to .Ltmp536
	.byte	0                               #   On action: cleanup
	.uleb128 .Ltmp537-.Lfunc_begin4         # >> Call Site 29 <<
	.uleb128 .Ltmp538-.Ltmp537              #   Call between .Ltmp537 and .Ltmp538
	.uleb128 .Ltmp547-.Lfunc_begin4         #     jumps to .Ltmp547
	.byte	0                               #   On action: cleanup
	.uleb128 .Ltmp548-.Lfunc_begin4         # >> Call Site 30 <<
	.uleb128 .Ltmp549-.Ltmp548              #   Call between .Ltmp548 and .Ltmp549
	.uleb128 .Ltmp558-.Lfunc_begin4         #     jumps to .Ltmp558
	.byte	0                               #   On action: cleanup
	.uleb128 .Ltmp559-.Lfunc_begin4         # >> Call Site 31 <<
	.uleb128 .Ltmp560-.Ltmp559              #   Call between .Ltmp559 and .Ltmp560
	.uleb128 .Ltmp569-.Lfunc_begin4         #     jumps to .Ltmp569
	.byte	0                               #   On action: cleanup
	.uleb128 .Ltmp570-.Lfunc_begin4         # >> Call Site 32 <<
	.uleb128 .Ltmp571-.Ltmp570              #   Call between .Ltmp570 and .Ltmp571
	.uleb128 .Ltmp580-.Lfunc_begin4         #     jumps to .Ltmp580
	.byte	0                               #   On action: cleanup
	.uleb128 .Ltmp581-.Lfunc_begin4         # >> Call Site 33 <<
	.uleb128 .Ltmp582-.Ltmp581              #   Call between .Ltmp581 and .Ltmp582
	.uleb128 .Ltmp591-.Lfunc_begin4         #     jumps to .Ltmp591
	.byte	0                               #   On action: cleanup
	.uleb128 .Ltmp592-.Lfunc_begin4         # >> Call Site 34 <<
	.uleb128 .Ltmp593-.Ltmp592              #   Call between .Ltmp592 and .Ltmp593
	.uleb128 .Ltmp602-.Lfunc_begin4         #     jumps to .Ltmp602
	.byte	0                               #   On action: cleanup
	.uleb128 .Ltmp603-.Lfunc_begin4         # >> Call Site 35 <<
	.uleb128 .Ltmp604-.Ltmp603              #   Call between .Ltmp603 and .Ltmp604
	.uleb128 .Ltmp613-.Lfunc_begin4         #     jumps to .Ltmp613
	.byte	0                               #   On action: cleanup
	.uleb128 .Ltmp614-.Lfunc_begin4         # >> Call Site 36 <<
	.uleb128 .Ltmp615-.Ltmp614              #   Call between .Ltmp614 and .Ltmp615
	.uleb128 .Ltmp623-.Lfunc_begin4         #     jumps to .Ltmp623
	.byte	0                               #   On action: cleanup
	.uleb128 .Ltmp616-.Lfunc_begin4         # >> Call Site 37 <<
	.uleb128 .Ltmp619-.Ltmp616              #   Call between .Ltmp616 and .Ltmp619
	.uleb128 .Ltmp620-.Lfunc_begin4         #     jumps to .Ltmp620
	.byte	0                               #   On action: cleanup
	.uleb128 .Ltmp621-.Lfunc_begin4         # >> Call Site 38 <<
	.uleb128 .Ltmp622-.Ltmp621              #   Call between .Ltmp621 and .Ltmp622
	.uleb128 .Ltmp623-.Lfunc_begin4         #     jumps to .Ltmp623
	.byte	0                               #   On action: cleanup
	.uleb128 .Ltmp622-.Lfunc_begin4         # >> Call Site 39 <<
	.uleb128 .Ltmp627-.Ltmp622              #   Call between .Ltmp622 and .Ltmp627
	.byte	0                               #     has no landing pad
	.byte	0                               #   On action: cleanup
	.uleb128 .Ltmp627-.Lfunc_begin4         # >> Call Site 40 <<
	.uleb128 .Ltmp628-.Ltmp627              #   Call between .Ltmp627 and .Ltmp628
	.uleb128 .Ltmp629-.Lfunc_begin4         #     jumps to .Ltmp629
	.byte	0                               #   On action: cleanup
	.uleb128 .Ltmp367-.Lfunc_begin4         # >> Call Site 41 <<
	.uleb128 .Ltmp374-.Ltmp367              #   Call between .Ltmp367 and .Ltmp374
	.uleb128 .Ltmp375-.Lfunc_begin4         #     jumps to .Ltmp375
	.byte	0                               #   On action: cleanup
	.uleb128 .Ltmp378-.Lfunc_begin4         # >> Call Site 42 <<
	.uleb128 .Ltmp385-.Ltmp378              #   Call between .Ltmp378 and .Ltmp385
	.uleb128 .Ltmp386-.Lfunc_begin4         #     jumps to .Ltmp386
	.byte	0                               #   On action: cleanup
	.uleb128 .Ltmp389-.Lfunc_begin4         # >> Call Site 43 <<
	.uleb128 .Ltmp396-.Ltmp389              #   Call between .Ltmp389 and .Ltmp396
	.uleb128 .Ltmp397-.Lfunc_begin4         #     jumps to .Ltmp397
	.byte	0                               #   On action: cleanup
	.uleb128 .Ltmp400-.Lfunc_begin4         # >> Call Site 44 <<
	.uleb128 .Ltmp407-.Ltmp400              #   Call between .Ltmp400 and .Ltmp407
	.uleb128 .Ltmp408-.Lfunc_begin4         #     jumps to .Ltmp408
	.byte	0                               #   On action: cleanup
	.uleb128 .Ltmp411-.Lfunc_begin4         # >> Call Site 45 <<
	.uleb128 .Ltmp418-.Ltmp411              #   Call between .Ltmp411 and .Ltmp418
	.uleb128 .Ltmp419-.Lfunc_begin4         #     jumps to .Ltmp419
	.byte	0                               #   On action: cleanup
	.uleb128 .Ltmp422-.Lfunc_begin4         # >> Call Site 46 <<
	.uleb128 .Ltmp429-.Ltmp422              #   Call between .Ltmp422 and .Ltmp429
	.uleb128 .Ltmp430-.Lfunc_begin4         #     jumps to .Ltmp430
	.byte	0                               #   On action: cleanup
	.uleb128 .Ltmp433-.Lfunc_begin4         # >> Call Site 47 <<
	.uleb128 .Ltmp440-.Ltmp433              #   Call between .Ltmp433 and .Ltmp440
	.uleb128 .Ltmp441-.Lfunc_begin4         #     jumps to .Ltmp441
	.byte	0                               #   On action: cleanup
	.uleb128 .Ltmp444-.Lfunc_begin4         # >> Call Site 48 <<
	.uleb128 .Ltmp451-.Ltmp444              #   Call between .Ltmp444 and .Ltmp451
	.uleb128 .Ltmp452-.Lfunc_begin4         #     jumps to .Ltmp452
	.byte	0                               #   On action: cleanup
	.uleb128 .Ltmp455-.Lfunc_begin4         # >> Call Site 49 <<
	.uleb128 .Ltmp462-.Ltmp455              #   Call between .Ltmp455 and .Ltmp462
	.uleb128 .Ltmp463-.Lfunc_begin4         #     jumps to .Ltmp463
	.byte	0                               #   On action: cleanup
	.uleb128 .Ltmp480-.Lfunc_begin4         # >> Call Site 50 <<
	.uleb128 .Ltmp487-.Ltmp480              #   Call between .Ltmp480 and .Ltmp487
	.uleb128 .Ltmp488-.Lfunc_begin4         #     jumps to .Ltmp488
	.byte	0                               #   On action: cleanup
	.uleb128 .Ltmp491-.Lfunc_begin4         # >> Call Site 51 <<
	.uleb128 .Ltmp498-.Ltmp491              #   Call between .Ltmp491 and .Ltmp498
	.uleb128 .Ltmp499-.Lfunc_begin4         #     jumps to .Ltmp499
	.byte	0                               #   On action: cleanup
	.uleb128 .Ltmp502-.Lfunc_begin4         # >> Call Site 52 <<
	.uleb128 .Ltmp509-.Ltmp502              #   Call between .Ltmp502 and .Ltmp509
	.uleb128 .Ltmp510-.Lfunc_begin4         #     jumps to .Ltmp510
	.byte	0                               #   On action: cleanup
	.uleb128 .Ltmp517-.Lfunc_begin4         # >> Call Site 53 <<
	.uleb128 .Ltmp524-.Ltmp517              #   Call between .Ltmp517 and .Ltmp524
	.uleb128 .Ltmp525-.Lfunc_begin4         #     jumps to .Ltmp525
	.byte	0                               #   On action: cleanup
	.uleb128 .Ltmp528-.Lfunc_begin4         # >> Call Site 54 <<
	.uleb128 .Ltmp535-.Ltmp528              #   Call between .Ltmp528 and .Ltmp535
	.uleb128 .Ltmp536-.Lfunc_begin4         #     jumps to .Ltmp536
	.byte	0                               #   On action: cleanup
	.uleb128 .Ltmp539-.Lfunc_begin4         # >> Call Site 55 <<
	.uleb128 .Ltmp546-.Ltmp539              #   Call between .Ltmp539 and .Ltmp546
	.uleb128 .Ltmp547-.Lfunc_begin4         #     jumps to .Ltmp547
	.byte	0                               #   On action: cleanup
	.uleb128 .Ltmp550-.Lfunc_begin4         # >> Call Site 56 <<
	.uleb128 .Ltmp557-.Ltmp550              #   Call between .Ltmp550 and .Ltmp557
	.uleb128 .Ltmp558-.Lfunc_begin4         #     jumps to .Ltmp558
	.byte	0                               #   On action: cleanup
	.uleb128 .Ltmp561-.Lfunc_begin4         # >> Call Site 57 <<
	.uleb128 .Ltmp568-.Ltmp561              #   Call between .Ltmp561 and .Ltmp568
	.uleb128 .Ltmp569-.Lfunc_begin4         #     jumps to .Ltmp569
	.byte	0                               #   On action: cleanup
	.uleb128 .Ltmp572-.Lfunc_begin4         # >> Call Site 58 <<
	.uleb128 .Ltmp579-.Ltmp572              #   Call between .Ltmp572 and .Ltmp579
	.uleb128 .Ltmp580-.Lfunc_begin4         #     jumps to .Ltmp580
	.byte	0                               #   On action: cleanup
	.uleb128 .Ltmp583-.Lfunc_begin4         # >> Call Site 59 <<
	.uleb128 .Ltmp590-.Ltmp583              #   Call between .Ltmp583 and .Ltmp590
	.uleb128 .Ltmp591-.Lfunc_begin4         #     jumps to .Ltmp591
	.byte	0                               #   On action: cleanup
	.uleb128 .Ltmp594-.Lfunc_begin4         # >> Call Site 60 <<
	.uleb128 .Ltmp601-.Ltmp594              #   Call between .Ltmp594 and .Ltmp601
	.uleb128 .Ltmp602-.Lfunc_begin4         #     jumps to .Ltmp602
	.byte	0                               #   On action: cleanup
	.uleb128 .Ltmp605-.Lfunc_begin4         # >> Call Site 61 <<
	.uleb128 .Ltmp612-.Ltmp605              #   Call between .Ltmp605 and .Ltmp612
	.uleb128 .Ltmp613-.Lfunc_begin4         #     jumps to .Ltmp613
	.byte	0                               #   On action: cleanup
	.uleb128 .Ltmp612-.Lfunc_begin4         # >> Call Site 62 <<
	.uleb128 .Lfunc_end6-.Ltmp612           #   Call between .Ltmp612 and .Lfunc_end6
	.byte	0                               #     has no landing pad
	.byte	0                               #   On action: cleanup
.Lcst_end4:
	.p2align	2, 0x0
                                        # -- End function
	.section	.text._Z34__device_stub__naive_conv_fwd_nchwILb1EfffEvPKT0_S2_PT2_St5arrayIiLm5EES6_S6_iiiiiiiiiiiiiiii,"axG",@progbits,_Z34__device_stub__naive_conv_fwd_nchwILb1EfffEvPKT0_S2_PT2_St5arrayIiLm5EES6_S6_iiiiiiiiiiiiiiii,comdat
